EXPORTS
	??6@YAAAVQDataStream@@AAV0@ABVSmfRelationItem@@@Z @ 1 NONAME ; class QDataStream & operator<<(class QDataStream &, class SmfRelationItem const &)
	??0SmfGallery@@QAE@PAVSmfProvider@@@Z @ 2 NONAME ; SmfGallery::SmfGallery(class SmfProvider *)
	?trUtf8@SmfClient@@SA?AVQString@@PBD0@Z @ 3 NONAME ; class QString SmfClient::trUtf8(char const *, char const *)
	?started@SmfClient@@AAEXXZ @ 4 NONAME ; void SmfClient::started(void)
	?postComments@SmfMusicService@@QAE?AW4SmfError@@VSmfTrackInfo@@VSmfComment@@@Z @ 5 NONAME ; enum SmfError SmfMusicService::postComments(class SmfTrackInfo, class SmfComment)
	??0SmfClient@@QAE@XZ @ 6 NONAME ; SmfClient::SmfClient(void)
	?tr@SmfContactFetcher@@SA?AVQString@@PBD0@Z @ 7 NONAME ; class QString SmfContactFetcher::tr(char const *, char const *)
	?getIndex@SmfRelationItem@@QBEIXZ @ 8 NONAME ; unsigned int SmfRelationItem::getIndex(void) const
	?trUtf8@SmfMusicSearch@@SA?AVQString@@PBD0@Z @ 9 NONAME ; class QString SmfMusicSearch::trUtf8(char const *, char const *)
	?getProvider@SmfMusicSearch@@ABEPAVSmfProvider@@XZ @ 10 NONAME ; class SmfProvider * SmfMusicSearch::getProvider(void) const
	?getStaticMetaObject@SmfPostProvider@@SAABUQMetaObject@@XZ @ 11 NONAME ; struct QMetaObject const & SmfPostProvider::getStaticMetaObject(void)
	?tr@SmfRelationMgr@@SA?AVQString@@PBD0@Z @ 12 NONAME ; class QString SmfRelationMgr::tr(char const *, char const *)
	?customDataAvailable@SmfMusicService@@IAEXABHPAVQByteArray@@@Z @ 13 NONAME ; void SmfMusicService::customDataAvailable(int const &, class QByteArray *)
	??1SmfRelationItem@@QAE@XZ @ 14 NONAME ; SmfRelationItem::~SmfRelationItem(void)
	?updatePost@SmfPostProvider@@QAE?AW4SmfError@@AAVSmfPost@@@Z @ 15 NONAME ; enum SmfError SmfPostProvider::updatePost(class SmfPost &)
	??1SmfPlaylistService@@UAE@XZ @ 16 NONAME ; SmfPlaylistService::~SmfPlaylistService(void)
	?supportedFormats@SmfPostProvider@@QBE?AV?$QVector@VQTextFormat@@@@XZ @ 17 NONAME ; class QVector<class QTextFormat> SmfPostProvider::supportedFormats(void) const
	?searchEvents@SmfMusicService@@QAE?AW4SmfError@@VSmfEvent@@HH@Z @ 18 NONAME ; enum SmfError SmfMusicService::searchEvents(class SmfEvent, int, int)
	?getStaticMetaObject@SmfMusicSearch@@SAABUQMetaObject@@XZ @ 19 NONAME ; struct QMetaObject const & SmfMusicSearch::getStaticMetaObject(void)
	?getStaticMetaObject@SmfGallery@@SAABUQMetaObject@@XZ @ 20 NONAME ; struct QMetaObject const & SmfGallery::getStaticMetaObject(void)
	?staticMetaObject@SmfGallery@@2UQMetaObject@@B @ 21 NONAME ; struct QMetaObject const SmfGallery::staticMetaObject
	?commentOnAPost@SmfPostProvider@@QAE?AW4SmfError@@AAVSmfPost@@0PAVSmfLocation@@@Z @ 22 NONAME ; enum SmfError SmfPostProvider::commentOnAPost(class SmfPost &, class SmfPost &, class SmfLocation *)
	?staticMetaObject@SmfClient@@2UQMetaObject@@B @ 23 NONAME ; struct QMetaObject const SmfClient::staticMetaObject
	??0SmfActivityFetcher@@QAE@PAVSmfProvider@@@Z @ 24 NONAME ; SmfActivityFetcher::SmfActivityFetcher(class SmfProvider *)
	?trUtf8@SmfPostProvider@@SA?AVQString@@PBD0H@Z @ 25 NONAME ; class QString SmfPostProvider::trUtf8(char const *, char const *, int)
	?metaObject@SmfGallery@@UBEPBUQMetaObject@@XZ @ 26 NONAME ; struct QMetaObject const * SmfGallery::metaObject(void) const
	?trUtf8@SmfEventsFetcher@@SA?AVQString@@PBD0H@Z @ 27 NONAME ; class QString SmfEventsFetcher::trUtf8(char const *, char const *, int)
	?searchUser@SmfMusicService@@QAE?AW4SmfError@@VSmfLocation@@HH@Z @ 28 NONAME ; enum SmfError SmfMusicService::searchUser(class SmfLocation, int, int)
	?getProvider@SmfEventsFetcher@@ABEPAVSmfProvider@@XZ @ 29 NONAME ; class SmfProvider * SmfEventsFetcher::getProvider(void) const
	??_ESmfPlaylistService@@UAE@I@Z @ 30 NONAME ; SmfPlaylistService::~SmfPlaylistService(unsigned int)
	?friendsActivities@SmfActivityFetcher@@QAE?AW4SmfError@@ABVSmfContact@@HH@Z @ 31 NONAME ; enum SmfError SmfActivityFetcher::friendsActivities(class SmfContact const &, int, int)
	?customDataAvailable@SmfMusicSearch@@IAEXABHPAVQByteArray@@@Z @ 32 NONAME ; void SmfMusicSearch::customDataAvailable(int const &, class QByteArray *)
	?supportsAppearence@SmfPostProvider@@QBE_NXZ @ 33 NONAME ; bool SmfPostProvider::supportsAppearence(void) const
	?getStaticMetaObject@SmfPlaylistService@@SAABUQMetaObject@@XZ @ 34 NONAME ; struct QMetaObject const & SmfPlaylistService::getStaticMetaObject(void)
	?GetServices@SmfClient@@QAEPAV?$QList@VSmfProvider@@@@ABVQString@@@Z @ 35 NONAME ; class QList<class SmfProvider> * SmfClient::GetServices(class QString const &)
	?staticMetaObject@SmfLyricsService@@2UQMetaObject@@B @ 36 NONAME ; struct QMetaObject const SmfLyricsService::staticMetaObject
	?staticMetaObject@SmfActivityFetcher@@2UQMetaObject@@B @ 37 NONAME ; struct QMetaObject const SmfActivityFetcher::staticMetaObject
	?trUtf8@SmfContactFetcher@@SA?AVQString@@PBD0@Z @ 38 NONAME ; class QString SmfContactFetcher::trUtf8(char const *, char const *)
	?friendsListAvailable@SmfContactFetcher@@IAEXPAV?$QList@VSmfContact@@@@W4SmfError@@USmfResultPage@@@Z @ 39 NONAME ; void SmfContactFetcher::friendsListAvailable(class QList<class SmfContact> *, enum SmfError, struct SmfResultPage)
	?qt_metacast@SmfMusicSearch@@UAEPAXPBD@Z @ 40 NONAME ; void * SmfMusicSearch::qt_metacast(char const *)
	?customDataAvailable@SmfLyricsService@@IAEXABHPAVQByteArray@@@Z @ 41 NONAME ; void SmfLyricsService::customDataAvailable(int const &, class QByteArray *)
	?searchNear@SmfContactFetcher@@QAE?AW4SmfError@@PAVSmfLocation@@W4SmfLocationSearchBoundary@@HH@Z @ 42 NONAME ; enum SmfError SmfContactFetcher::searchNear(class SmfLocation *, enum SmfLocationSearchBoundary, int, int)
	?qt_metacast@SmfPlaylistService@@UAEPAXPBD@Z @ 43 NONAME ; void * SmfPlaylistService::qt_metacast(char const *)
	?trUtf8@SmfRelationMgr@@SA?AVQString@@PBD0H@Z @ 44 NONAME ; class QString SmfRelationMgr::trUtf8(char const *, char const *, int)
	?trUtf8@SmfActivityFetcher@@SA?AVQString@@PBD0H@Z @ 45 NONAME ; class QString SmfActivityFetcher::trUtf8(char const *, char const *, int)
	?tr@SmfClient@@SA?AVQString@@PBD0H@Z @ 46 NONAME ; class QString SmfClient::tr(char const *, char const *, int)
	?metaObject@SmfPlaylistService@@UBEPBUQMetaObject@@XZ @ 47 NONAME ; struct QMetaObject const * SmfPlaylistService::metaObject(void) const
	?tr@SmfRelationMgr@@SA?AVQString@@PBD0H@Z @ 48 NONAME ; class QString SmfRelationMgr::tr(char const *, char const *, int)
	?metaObject@SmfPostProvider@@UBEPBUQMetaObject@@XZ @ 49 NONAME ; struct QMetaObject const * SmfPostProvider::metaObject(void) const
	?searchArtist@SmfMusicService@@QAE?AW4SmfError@@VSmfArtists@@HH@Z @ 50 NONAME ; enum SmfError SmfMusicService::searchArtist(class SmfArtists, int, int)
	?tr@SmfGallery@@SA?AVQString@@PBD0@Z @ 51 NONAME ; class QString SmfGallery::tr(char const *, char const *)
	?qt_metacall@SmfPostProvider@@UAEHW4Call@QMetaObject@@HPAPAX@Z @ 52 NONAME ; int SmfPostProvider::qt_metacall(enum QMetaObject::Call, int, void * *)
	??5@YAAAVQDataStream@@AAV0@AAVSmfRelationItem@@@Z @ 53 NONAME ; class QDataStream & operator>>(class QDataStream &, class SmfRelationItem &)
	?get@SmfRelationMgr@@QAEPAVSmfRelationItem@@AAVQString@@I@Z @ 54 NONAME ; class SmfRelationItem * SmfRelationMgr::get(class QString &, unsigned int)
	?storeSearchAvailable@SmfMusicSearch@@IAEXPAV?$QList@VSmfProvider@@@@W4SmfError@@USmfResultPage@@@Z @ 55 NONAME ; void SmfMusicSearch::storeSearchAvailable(class QList<class SmfProvider> *, enum SmfError, struct SmfResultPage)
	?pictures@SmfGallery@@QAE?AW4SmfError@@AAV?$QList@VSmfPictureAlbum@@@@HH@Z @ 56 NONAME ; enum SmfError SmfGallery::pictures(class QList<class SmfPictureAlbum> &, int, int)
	?uploadFinished@SmfGallery@@IAEXV?$QList@W4SmfError@@@@@Z @ 57 NONAME ; void SmfGallery::uploadFinished(class QList<enum SmfError>)
	?getStaticMetaObject@SmfMusicService@@SAABUQMetaObject@@XZ @ 58 NONAME ; struct QMetaObject const & SmfMusicService::getStaticMetaObject(void)
	?upload@SmfGallery@@QAE?AW4SmfError@@PAVSmfPicture@@PAVSmfPictureAlbum@@@Z @ 59 NONAME ; enum SmfError SmfGallery::upload(class SmfPicture *, class SmfPictureAlbum *)
	?tracksOfArtist@SmfMusicSearch@@QAE?AW4SmfError@@VSmfArtists@@HH@Z @ 60 NONAME ; enum SmfError SmfMusicSearch::tracksOfArtist(class SmfArtists, int, int)
	?getProvider@SmfPostProvider@@ABEPAVSmfProvider@@XZ @ 61 NONAME ; class SmfProvider * SmfPostProvider::getProvider(void) const
	?getProvider@SmfPlaylistService@@ABEPAVSmfProvider@@XZ @ 62 NONAME ; class SmfProvider * SmfPlaylistService::getProvider(void) const
	?trUtf8@SmfPostProvider@@SA?AVQString@@PBD0@Z @ 63 NONAME ; class QString SmfPostProvider::trUtf8(char const *, char const *)
	?getStaticMetaObject@SmfContactFetcher@@SAABUQMetaObject@@XZ @ 64 NONAME ; struct QMetaObject const & SmfContactFetcher::getStaticMetaObject(void)
	?tr@SmfPostProvider@@SA?AVQString@@PBD0@Z @ 65 NONAME ; class QString SmfPostProvider::tr(char const *, char const *)
	?tr@SmfActivityFetcher@@SA?AVQString@@PBD0H@Z @ 66 NONAME ; class QString SmfActivityFetcher::tr(char const *, char const *, int)
	??0SmfEventsFetcher@@QAE@PAVSmfProvider@@@Z @ 67 NONAME ; SmfEventsFetcher::SmfEventsFetcher(class SmfProvider *)
	?resultsAvailable@SmfActivityFetcher@@IAEXPAV?$QList@VSmfActivityEntry@@@@W4SmfError@@USmfResultPage@@@Z @ 68 NONAME ; void SmfActivityFetcher::resultsAvailable(class QList<class SmfActivityEntry> *, enum SmfError, struct SmfResultPage)
	?qt_metacall@SmfMusicService@@UAEHW4Call@QMetaObject@@HPAPAX@Z @ 69 NONAME ; int SmfMusicService::qt_metacall(enum QMetaObject::Call, int, void * *)
	?qt_metacall@SmfPlaylistService@@UAEHW4Call@QMetaObject@@HPAPAX@Z @ 70 NONAME ; int SmfPlaylistService::qt_metacall(enum QMetaObject::Call, int, void * *)
	?trUtf8@SmfActivityFetcher@@SA?AVQString@@PBD0@Z @ 71 NONAME ; class QString SmfActivityFetcher::trUtf8(char const *, char const *)
	?tr@SmfPostProvider@@SA?AVQString@@PBD0H@Z @ 72 NONAME ; class QString SmfPostProvider::tr(char const *, char const *, int)
	?Delete@SmfRelationMgr@@QAE?AW4SmfError@@AAVQString@@@Z @ 73 NONAME ; enum SmfError SmfRelationMgr::Delete(class QString &)
	?metaObject@SmfLyricsService@@UBEPBUQMetaObject@@XZ @ 74 NONAME ; struct QMetaObject const * SmfLyricsService::metaObject(void) const
	?userMusicInfoAvailable@SmfMusicService@@IAEXPAVSmfMusicProfile@@W4SmfError@@@Z @ 75 NONAME ; void SmfMusicService::userMusicInfoAvailable(class SmfMusicProfile *, enum SmfError)
	?searchVenue@SmfMusicService@@QAE?AW4SmfError@@VSmfLocation@@HH@Z @ 76 NONAME ; enum SmfError SmfMusicService::searchVenue(class SmfLocation, int, int)
	?qt_metacast@SmfClient@@UAEPAXPBD@Z @ 77 NONAME ; void * SmfClient::qt_metacast(char const *)
	??0SmfPostProvider@@QAE@PAVSmfProvider@@@Z @ 78 NONAME ; SmfPostProvider::SmfPostProvider(class SmfProvider *)
	?trUtf8@SmfMusicService@@SA?AVQString@@PBD0H@Z @ 79 NONAME ; class QString SmfMusicService::trUtf8(char const *, char const *, int)
	?postEvents@SmfEventsFetcher@@QAE?AW4SmfError@@V?$QList@VSmfEvent@@@@@Z @ 80 NONAME ; enum SmfError SmfEventsFetcher::postEvents(class QList<class SmfEvent>)
	??_ESmfRelationItem@@QAE@I@Z @ 81 NONAME ; SmfRelationItem::~SmfRelationItem(unsigned int)
	?cancelRequest@SmfPostProvider@@QAE?AW4SmfError@@XZ @ 82 NONAME ; enum SmfError SmfPostProvider::cancelRequest(void)
	?friends@SmfContactFetcher@@QAE?AW4SmfError@@HH@Z @ 83 NONAME ; enum SmfError SmfContactFetcher::friends(int, int)
	??0SmfContactFetcher@@QAE@PAVSmfProvider@@PAVSmfContact@@@Z @ 84 NONAME ; SmfContactFetcher::SmfContactFetcher(class SmfProvider *, class SmfContact *)
	?postComment@SmfGallery@@QAE?AW4SmfError@@VSmfPicture@@VSmfComment@@@Z @ 85 NONAME ; enum SmfError SmfGallery::postComment(class SmfPicture, class SmfComment)
	?getProvider@SmfContactFetcher@@ABEPAVSmfProvider@@XZ @ 86 NONAME ; class SmfProvider * SmfContactFetcher::getProvider(void) const
	?logoutOfService@SmfClient@@QAE?AW4SmfError@@PAVSmfProvider@@@Z @ 87 NONAME ; enum SmfError SmfClient::logoutOfService(class SmfProvider *)
	??0SmfRelationItem@@QAE@ABV0@@Z @ 88 NONAME ; SmfRelationItem::SmfRelationItem(class SmfRelationItem const &)
	?addToPlaylist@SmfPlaylistService@@QAE?AW4SmfError@@VSmfPlaylist@@PAV?$QList@VSmfTrackInfo@@@@@Z @ 89 NONAME ; enum SmfError SmfPlaylistService::addToPlaylist(class SmfPlaylist, class QList<class SmfTrackInfo> *)
	?customDataAvailable@SmfPlaylistService@@IAEXABHPAVQByteArray@@@Z @ 90 NONAME ; void SmfPlaylistService::customDataAvailable(int const &, class QByteArray *)
	?qt_metacall@SmfActivityFetcher@@UAEHW4Call@QMetaObject@@HPAPAX@Z @ 91 NONAME ; int SmfActivityFetcher::qt_metacall(enum QMetaObject::Call, int, void * *)
	?attendees@SmfEventsFetcher@@QAE?AW4SmfError@@VSmfEvent@@HH@Z @ 92 NONAME ; enum SmfError SmfEventsFetcher::attendees(class SmfEvent, int, int)
	?staticMetaObject@SmfMusicService@@2UQMetaObject@@B @ 93 NONAME ; struct QMetaObject const SmfMusicService::staticMetaObject
	??_ESmfClient@@UAE@I@Z @ 94 NONAME ; SmfClient::~SmfClient(unsigned int)
	?subtitles@SmfLyricsService@@QAE?AW4SmfError@@VSmfTrackInfo@@W4SmfSubtitleSearchFilter@@HH@Z @ 95 NONAME ; enum SmfError SmfLyricsService::subtitles(class SmfTrackInfo, enum SmfSubtitleSearchFilter, int, int)
	?staticMetaObject@SmfMusicSearch@@2UQMetaObject@@B @ 96 NONAME ; struct QMetaObject const SmfMusicSearch::staticMetaObject
	?trUtf8@SmfMusicService@@SA?AVQString@@PBD0@Z @ 97 NONAME ; class QString SmfMusicService::trUtf8(char const *, char const *)
	?qt_metacast@SmfGallery@@UAEPAXPBD@Z @ 98 NONAME ; void * SmfGallery::qt_metacast(char const *)
	?tr@SmfMusicService@@SA?AVQString@@PBD0@Z @ 99 NONAME ; class QString SmfMusicService::tr(char const *, char const *)
	?finished@SmfClient@@AAEXHW4ExitStatus@QProcess@@@Z @ 100 NONAME ; void SmfClient::finished(int, enum QProcess::ExitStatus)
	?metaObject@SmfMusicService@@UBEPBUQMetaObject@@XZ @ 101 NONAME ; struct QMetaObject const * SmfMusicService::metaObject(void) const
	?cancelRequest@SmfLyricsService@@QAE?AW4SmfError@@XZ @ 102 NONAME ; enum SmfError SmfLyricsService::cancelRequest(void)
	?trUtf8@SmfEventsFetcher@@SA?AVQString@@PBD0@Z @ 103 NONAME ; class QString SmfEventsFetcher::trUtf8(char const *, char const *)
	?staticMetaObject@SmfEventsFetcher@@2UQMetaObject@@B @ 104 NONAME ; struct QMetaObject const SmfEventsFetcher::staticMetaObject
	?postsAvailable@SmfPostProvider@@IAEXPAV?$QList@VSmfPost@@@@W4SmfError@@USmfResultPage@@@Z @ 105 NONAME ; void SmfPostProvider::postsAvailable(class QList<class SmfPost> *, enum SmfError, struct SmfResultPage)
	?playlistsOf@SmfPlaylistService@@QAE?AW4SmfError@@PAVSmfContact@@HH@Z @ 106 NONAME ; enum SmfError SmfPlaylistService::playlistsOf(class SmfContact *, int, int)
	??1SmfGallery@@UAE@XZ @ 107 NONAME ; SmfGallery::~SmfGallery(void)
	??1SmfClient@@UAE@XZ @ 108 NONAME ; SmfClient::~SmfClient(void)
	?tracksOfAlbum@SmfMusicSearch@@QAE?AW4SmfError@@VSmfAlbum@@HH@Z @ 109 NONAME ; enum SmfError SmfMusicSearch::tracksOfAlbum(class SmfAlbum, int, int)
	?tr@SmfMusicSearch@@SA?AVQString@@PBD0@Z @ 110 NONAME ; class QString SmfMusicSearch::tr(char const *, char const *)
	?customDataAvailable@SmfEventsFetcher@@IAEXABHPAVQByteArray@@@Z @ 111 NONAME ; void SmfEventsFetcher::customDataAvailable(int const &, class QByteArray *)
	?subtitleAvailable@SmfLyricsService@@IAEXPAV?$QList@VSmfSubtitle@@@@W4SmfError@@USmfResultPage@@@Z @ 112 NONAME ; void SmfLyricsService::subtitleAvailable(class QList<class SmfSubtitle> *, enum SmfError, struct SmfResultPage)
	?associate@SmfRelationMgr@@QAE?AW4SmfError@@AAVQString@@PBVSmfContact@@PAVSmfProvider@@@Z @ 113 NONAME ; enum SmfError SmfRelationMgr::associate(class QString &, class SmfContact const *, class SmfProvider *)
	?getProvider@SmfMusicService@@ABEPAVSmfProvider@@XZ @ 114 NONAME ; class SmfProvider * SmfMusicService::getProvider(void) const
	?staticMetaObject@SmfContactFetcher@@2UQMetaObject@@B @ 115 NONAME ; struct QMetaObject const SmfContactFetcher::staticMetaObject
	?searchNearFinished@SmfContactFetcher@@IAEXPAV?$QList@VSmfContact@@@@W4SmfError@@USmfResultPage@@@Z @ 116 NONAME ; void SmfContactFetcher::searchNearFinished(class QList<class SmfContact> *, enum SmfError, struct SmfResultPage)
	?metaObject@SmfContactFetcher@@UBEPBUQMetaObject@@XZ @ 117 NONAME ; struct QMetaObject const * SmfContactFetcher::metaObject(void) const
	?searchInGroupFinished@SmfContactFetcher@@IAEXPAV?$QList@VSmfContact@@@@W4SmfError@@USmfResultPage@@@Z @ 118 NONAME ; void SmfContactFetcher::searchInGroupFinished(class QList<class SmfContact> *, enum SmfError, struct SmfResultPage)
	??1SmfRelationMgr@@UAE@XZ @ 119 NONAME ; SmfRelationMgr::~SmfRelationMgr(void)
	?qt_metacast@SmfPostProvider@@UAEPAXPBD@Z @ 120 NONAME ; void * SmfPostProvider::qt_metacast(char const *)
	?getAllRelations@SmfRelationMgr@@QAE?AV?$QList@VQString@@@@XZ @ 121 NONAME ; class QList<class QString> SmfRelationMgr::getAllRelations(void)
	?qt_metacast@SmfRelationMgr@@UAEPAXPBD@Z @ 122 NONAME ; void * SmfRelationMgr::qt_metacast(char const *)
	?cancelRequest@SmfMusicService@@QAE?AW4SmfError@@XZ @ 123 NONAME ; enum SmfError SmfMusicService::cancelRequest(void)
	?tr@SmfActivityFetcher@@SA?AVQString@@PBD0@Z @ 124 NONAME ; class QString SmfActivityFetcher::tr(char const *, char const *)
	?tr@SmfMusicService@@SA?AVQString@@PBD0H@Z @ 125 NONAME ; class QString SmfMusicService::tr(char const *, char const *, int)
	??0SmfPlaylistService@@QAE@PAVSmfProvider@@@Z @ 126 NONAME ; SmfPlaylistService::SmfPlaylistService(class SmfProvider *)
	?searchArtistInfoAvailable@SmfMusicService@@IAEXPAV?$QList@VSmfArtists@@@@W4SmfError@@USmfResultPage@@@Z @ 127 NONAME ; void SmfMusicService::searchArtistInfoAvailable(class QList<class SmfArtists> *, enum SmfError, struct SmfResultPage)
	?getStaticMetaObject@SmfClient@@SAABUQMetaObject@@XZ @ 128 NONAME ; struct QMetaObject const & SmfClient::getStaticMetaObject(void)
	?metaObject@SmfActivityFetcher@@UBEPBUQMetaObject@@XZ @ 129 NONAME ; struct QMetaObject const * SmfActivityFetcher::metaObject(void) const
	?selfActivities@SmfActivityFetcher@@QAE?AW4SmfError@@HH@Z @ 130 NONAME ; enum SmfError SmfActivityFetcher::selfActivities(int, int)
	?trackSearchAvailable@SmfMusicSearch@@IAEXPAV?$QList@VSmfTrackInfo@@@@W4SmfError@@USmfResultPage@@@Z @ 131 NONAME ; void SmfMusicSearch::trackSearchAvailable(class QList<class SmfTrackInfo> *, enum SmfError, struct SmfResultPage)
	?venuesAvailable@SmfEventsFetcher@@IAEXPAV?$QList@VSmfLocation@@@@W4SmfError@@USmfResultPage@@@Z @ 132 NONAME ; void SmfEventsFetcher::venuesAvailable(class QList<class SmfLocation> *, enum SmfError, struct SmfResultPage)
	?customRequest@SmfGallery@@QAE?AW4SmfError@@ABHPAVQByteArray@@@Z @ 133 NONAME ; enum SmfError SmfGallery::customRequest(int const &, class QByteArray *)
	?create@SmfRelationMgr@@QAE?AW4SmfError@@AAVQString@@PAVSmfProvider@@PAVSmfContact@@@Z @ 134 NONAME ; enum SmfError SmfRelationMgr::create(class QString &, class SmfProvider *, class SmfContact *)
	?events@SmfEventsFetcher@@QAE?AW4SmfError@@VSmfLocation@@HH@Z @ 135 NONAME ; enum SmfError SmfEventsFetcher::events(class SmfLocation, int, int)
	?count@SmfRelationMgr@@QAEIVQString@@@Z @ 136 NONAME ; unsigned int SmfRelationMgr::count(class QString)
	?staticMetaObject@SmfRelationMgr@@2UQMetaObject@@B @ 137 NONAME ; struct QMetaObject const SmfRelationMgr::staticMetaObject
	?trUtf8@SmfPlaylistService@@SA?AVQString@@PBD0@Z @ 138 NONAME ; class QString SmfPlaylistService::trUtf8(char const *, char const *)
	?qt_metacall@SmfClient@@UAEHW4Call@QMetaObject@@HPAPAX@Z @ 139 NONAME ; int SmfClient::qt_metacall(enum QMetaObject::Call, int, void * *)
	?description@SmfGallery@@QAE?AW4SmfError@@AAVSmfPicture@@@Z @ 140 NONAME ; enum SmfError SmfGallery::description(class SmfPicture &)
	?filtered@SmfActivityFetcher@@QAE?AW4SmfError@@V?$QList@W4SmfActivityObjectType@@@@HH@Z @ 141 NONAME ; enum SmfError SmfActivityFetcher::filtered(class QList<enum SmfActivityObjectType>, int, int)
	?metaObject@SmfEventsFetcher@@UBEPBUQMetaObject@@XZ @ 142 NONAME ; struct QMetaObject const * SmfEventsFetcher::metaObject(void) const
	?maxCharsInPost@SmfPostProvider@@QBEHXZ @ 143 NONAME ; int SmfPostProvider::maxCharsInPost(void) const
	??1SmfEventsFetcher@@UAE@XZ @ 144 NONAME ; SmfEventsFetcher::~SmfEventsFetcher(void)
	?qt_metacall@SmfMusicSearch@@UAEHW4Call@QMetaObject@@HPAPAX@Z @ 145 NONAME ; int SmfMusicSearch::qt_metacall(enum QMetaObject::Call, int, void * *)
	?getProvider@SmfActivityFetcher@@ABEPAVSmfProvider@@XZ @ 146 NONAME ; class SmfProvider * SmfActivityFetcher::getProvider(void) const
	?customRequest@SmfContactFetcher@@QAE?AW4SmfError@@ABHPAVQByteArray@@@Z @ 147 NONAME ; enum SmfError SmfContactFetcher::customRequest(int const &, class QByteArray *)
	?search@SmfContactFetcher@@QAE?AW4SmfError@@PAVSmfContact@@HH@Z @ 148 NONAME ; enum SmfError SmfContactFetcher::search(class SmfContact *, int, int)
	?cancelRequest@SmfActivityFetcher@@QAE?AW4SmfError@@XZ @ 149 NONAME ; enum SmfError SmfActivityFetcher::cancelRequest(void)
	??1SmfMusicService@@UAE@XZ @ 150 NONAME ; SmfMusicService::~SmfMusicService(void)
	?descriptionAvailable@SmfGallery@@IAEXVQString@@W4SmfError@@@Z @ 151 NONAME ; void SmfGallery::descriptionAvailable(class QString, enum SmfError)
	??1SmfContactFetcher@@UAE@XZ @ 152 NONAME ; SmfContactFetcher::~SmfContactFetcher(void)
	?customDataAvailable@SmfActivityFetcher@@IAEXABHPAVQByteArray@@@Z @ 153 NONAME ; void SmfActivityFetcher::customDataAvailable(int const &, class QByteArray *)
	?checkAuthorization@SmfClient@@QAE?AW4SMFProviderAuthorizationStatus@@ABVSmfProvider@@@Z @ 154 NONAME ; enum SMFProviderAuthorizationStatus SmfClient::checkAuthorization(class SmfProvider const &)
	?maxItems@SmfPostProvider@@QBEHXZ @ 155 NONAME ; int SmfPostProvider::maxItems(void) const
	??0SmfLyricsService@@QAE@PAVSmfProvider@@@Z @ 156 NONAME ; SmfLyricsService::SmfLyricsService(class SmfProvider *)
	?postDirected@SmfPostProvider@@QAE?AW4SmfError@@AAVSmfPost@@AAVSmfContact@@PAVSmfLocation@@@Z @ 157 NONAME ; enum SmfError SmfPostProvider::postDirected(class SmfPost &, class SmfContact &, class SmfLocation *)
	?qt_metacall@SmfRelationMgr@@UAEHW4Call@QMetaObject@@HPAPAX@Z @ 158 NONAME ; int SmfRelationMgr::qt_metacall(enum QMetaObject::Call, int, void * *)
	?posts@SmfPostProvider@@QAE?AW4SmfError@@PAVSmfContact@@HH@Z @ 159 NONAME ; enum SmfError SmfPostProvider::posts(class SmfContact *, int, int)
	?qt_metacall@SmfLyricsService@@UAEHW4Call@QMetaObject@@HPAPAX@Z @ 160 NONAME ; int SmfLyricsService::qt_metacall(enum QMetaObject::Call, int, void * *)
	?qt_metacast@SmfActivityFetcher@@UAEPAXPBD@Z @ 161 NONAME ; void * SmfActivityFetcher::qt_metacast(char const *)
	?tr@SmfEventsFetcher@@SA?AVQString@@PBD0@Z @ 162 NONAME ; class QString SmfEventsFetcher::tr(char const *, char const *)
	?getStaticMetaObject@SmfEventsFetcher@@SAABUQMetaObject@@XZ @ 163 NONAME ; struct QMetaObject const & SmfEventsFetcher::getStaticMetaObject(void)
	?trUtf8@SmfContactFetcher@@SA?AVQString@@PBD0H@Z @ 164 NONAME ; class QString SmfContactFetcher::trUtf8(char const *, char const *, int)
	?loginToService@SmfClient@@QAE?AW4SmfError@@PAVSmfProvider@@@Z @ 165 NONAME ; enum SmfError SmfClient::loginToService(class SmfProvider *)
	?qt_metacall@SmfContactFetcher@@UAEHW4Call@QMetaObject@@HPAPAX@Z @ 166 NONAME ; int SmfContactFetcher::qt_metacall(enum QMetaObject::Call, int, void * *)
	?trUtf8@SmfClient@@SA?AVQString@@PBD0H@Z @ 167 NONAME ; class QString SmfClient::trUtf8(char const *, char const *, int)
	?tracksSimilar@SmfMusicSearch@@QAE?AW4SmfError@@VSmfTrackInfo@@HH@Z @ 168 NONAME ; enum SmfError SmfMusicSearch::tracksSimilar(class SmfTrackInfo, int, int)
	?trUtf8@SmfGallery@@SA?AVQString@@PBD0@Z @ 169 NONAME ; class QString SmfGallery::trUtf8(char const *, char const *)
	?trUtf8@SmfLyricsService@@SA?AVQString@@PBD0@Z @ 170 NONAME ; class QString SmfLyricsService::trUtf8(char const *, char const *)
	?qt_metacall@SmfGallery@@UAEHW4Call@QMetaObject@@HPAPAX@Z @ 171 NONAME ; int SmfGallery::qt_metacall(enum QMetaObject::Call, int, void * *)
	??1SmfMusicSearch@@UAE@XZ @ 172 NONAME ; SmfMusicSearch::~SmfMusicSearch(void)
	?albumsAvailable@SmfGallery@@IAEXPAV?$QList@VSmfPictureAlbum@@@@W4SmfError@@USmfResultPage@@@Z @ 173 NONAME ; void SmfGallery::albumsAvailable(class QList<class SmfPictureAlbum> *, enum SmfError, struct SmfResultPage)
	?recommendations@SmfMusicSearch@@QAE?AW4SmfError@@VSmfTrackInfo@@HH@Z @ 174 NONAME ; enum SmfError SmfMusicSearch::recommendations(class SmfTrackInfo, int, int)
	?customRequest@SmfMusicService@@QAE?AW4SmfError@@ABHPAVQByteArray@@@Z @ 175 NONAME ; enum SmfError SmfMusicService::customRequest(int const &, class QByteArray *)
	?searchAlbum@SmfMusicService@@QAE?AW4SmfError@@VSmfAlbum@@HH@Z @ 176 NONAME ; enum SmfError SmfMusicService::searchAlbum(class SmfAlbum, int, int)
	??0SmfMusicService@@QAE@PAVSmfProvider@@@Z @ 177 NONAME ; SmfMusicService::SmfMusicService(class SmfProvider *)
	?remove@SmfRelationMgr@@QAE?AW4SmfError@@AAVQString@@PBVSmfContact@@@Z @ 178 NONAME ; enum SmfError SmfRelationMgr::remove(class QString &, class SmfContact const *)
	?trUtf8@SmfRelationMgr@@SA?AVQString@@PBD0@Z @ 179 NONAME ; class QString SmfRelationMgr::trUtf8(char const *, char const *)
	?groupListAvailable@SmfContactFetcher@@IAEXPAV?$QList@VSmfGroup@@@@W4SmfError@@USmfResultPage@@@Z @ 180 NONAME ; void SmfContactFetcher::groupListAvailable(class QList<class SmfGroup> *, enum SmfError, struct SmfResultPage)
	?setContact@SmfRelationItem@@QAEXAAVSmfContact@@@Z @ 181 NONAME ; void SmfRelationItem::setContact(class SmfContact &)
	?searchByContact@SmfRelationMgr@@QAE?AVQString@@VSmfContact@@@Z @ 182 NONAME ; class QString SmfRelationMgr::searchByContact(class SmfContact)
	?upload@SmfGallery@@QAE?AW4SmfError@@PAV?$QList@VSmfPicture@@@@PAVSmfPictureAlbum@@@Z @ 183 NONAME ; enum SmfError SmfGallery::upload(class QList<class SmfPicture> *, class SmfPictureAlbum *)
	?cancelRequest@SmfEventsFetcher@@QAE?AW4SmfError@@XZ @ 184 NONAME ; enum SmfError SmfEventsFetcher::cancelRequest(void)
	?getStaticMetaObject@SmfRelationMgr@@SAABUQMetaObject@@XZ @ 185 NONAME ; struct QMetaObject const & SmfRelationMgr::getStaticMetaObject(void)
	??_ESmfMusicSearch@@UAE@I@Z @ 186 NONAME ; SmfMusicSearch::~SmfMusicSearch(unsigned int)
	?getProvider@SmfGallery@@ABEPAVSmfProvider@@XZ @ 187 NONAME ; class SmfProvider * SmfGallery::getProvider(void) const
	?searchVenueInfoAvailable@SmfMusicService@@IAEXPAV?$QList@VSmfLocation@@@@W4SmfError@@USmfResultPage@@@Z @ 188 NONAME ; void SmfMusicService::searchVenueInfoAvailable(class QList<class SmfLocation> *, enum SmfError, struct SmfResultPage)
	?sharePost@SmfPostProvider@@QAE?AW4SmfError@@AAVSmfPost@@AAVSmfContact@@_N@Z @ 189 NONAME ; enum SmfError SmfPostProvider::sharePost(class SmfPost &, class SmfContact &, bool)
	?stores@SmfMusicSearch@@QAE?AW4SmfError@@VSmfTrackInfo@@HH@Z @ 190 NONAME ; enum SmfError SmfMusicSearch::stores(class SmfTrackInfo, int, int)
	?cancelRequest@SmfPlaylistService@@QAE?AW4SmfError@@XZ @ 191 NONAME ; enum SmfError SmfPlaylistService::cancelRequest(void)
	?venues@SmfEventsFetcher@@QAE?AW4SmfError@@VSmfLocation@@HH@Z @ 192 NONAME ; enum SmfError SmfEventsFetcher::venues(class SmfLocation, int, int)
	??_ESmfContactFetcher@@UAE@I@Z @ 193 NONAME ; SmfContactFetcher::~SmfContactFetcher(unsigned int)
	?getProvider@SmfRelationItem@@QBE?AVSmfProvider@@XZ @ 194 NONAME ; class SmfProvider SmfRelationItem::getProvider(void) const
	?tr@SmfGallery@@SA?AVQString@@PBD0H@Z @ 195 NONAME ; class QString SmfGallery::tr(char const *, char const *, int)
	?searchAlbumInfoAvailable@SmfMusicService@@IAEXPAV?$QList@VSmfAlbum@@@@W4SmfError@@USmfResultPage@@@Z @ 196 NONAME ; void SmfMusicService::searchAlbumInfoAvailable(class QList<class SmfAlbum> *, enum SmfError, struct SmfResultPage)
	?metaObject@SmfMusicSearch@@UBEPBUQMetaObject@@XZ @ 197 NONAME ; struct QMetaObject const * SmfMusicSearch::metaObject(void) const
	?customDataAvailable@SmfContactFetcher@@IAEXHPAVQByteArray@@@Z @ 198 NONAME ; void SmfContactFetcher::customDataAvailable(int, class QByteArray *)
	?customDataAvailable@SmfGallery@@IAEXHPAVQByteArray@@@Z @ 199 NONAME ; void SmfGallery::customDataAvailable(int, class QByteArray *)
	?customRequest@SmfLyricsService@@QAE?AW4SmfError@@ABHPAVQByteArray@@@Z @ 200 NONAME ; enum SmfError SmfLyricsService::customRequest(int const &, class QByteArray *)
	??1SmfPostProvider@@UAE@XZ @ 201 NONAME ; SmfPostProvider::~SmfPostProvider(void)
	?lyricsAvailable@SmfLyricsService@@IAEXPAV?$QList@VSmfLyrics@@@@W4SmfError@@USmfResultPage@@@Z @ 202 NONAME ; void SmfLyricsService::lyricsAvailable(class QList<class SmfLyrics> *, enum SmfError, struct SmfResultPage)
	?cancelRequest@SmfGallery@@QAE?AW4SmfError@@XZ @ 203 NONAME ; enum SmfError SmfGallery::cancelRequest(void)
	?tr@SmfLyricsService@@SA?AVQString@@PBD0H@Z @ 204 NONAME ; class QString SmfLyricsService::tr(char const *, char const *, int)
	?tr@SmfPlaylistService@@SA?AVQString@@PBD0@Z @ 205 NONAME ; class QString SmfPlaylistService::tr(char const *, char const *)
	?qt_metacast@SmfEventsFetcher@@UAEPAXPBD@Z @ 206 NONAME ; void * SmfEventsFetcher::qt_metacast(char const *)
	??_ESmfPostProvider@@UAE@I@Z @ 207 NONAME ; SmfPostProvider::~SmfPostProvider(unsigned int)
	??0SmfRelationItem@@QAE@XZ @ 208 NONAME ; SmfRelationItem::SmfRelationItem(void)
	??_ESmfMusicService@@UAE@I@Z @ 209 NONAME ; SmfMusicService::~SmfMusicService(unsigned int)
	?postCurrentPlayingPlaylist@SmfPlaylistService@@QAE?AW4SmfError@@VSmfPlaylist@@@Z @ 210 NONAME ; enum SmfError SmfPlaylistService::postCurrentPlayingPlaylist(class SmfPlaylist)
	?getAll@SmfRelationMgr@@QAE?AV?$QList@VSmfRelationItem@@@@AAVQString@@@Z @ 211 NONAME ; class QList<class SmfRelationItem> SmfRelationMgr::getAll(class QString &)
	?trUtf8@SmfGallery@@SA?AVQString@@PBD0H@Z @ 212 NONAME ; class QString SmfGallery::trUtf8(char const *, char const *, int)
	?followersListAvailable@SmfContactFetcher@@IAEXPAV?$QList@VSmfContact@@@@W4SmfError@@USmfResultPage@@@Z @ 213 NONAME ; void SmfContactFetcher::followersListAvailable(class QList<class SmfContact> *, enum SmfError, struct SmfResultPage)
	??_ESmfRelationMgr@@UAE@I@Z @ 214 NONAME ; SmfRelationMgr::~SmfRelationMgr(unsigned int)
	?post@SmfPostProvider@@QAE?AW4SmfError@@AAVSmfPost@@AAVSmfLocation@@@Z @ 215 NONAME ; enum SmfError SmfPostProvider::post(class SmfPost &, class SmfLocation &)
	?customRequest@SmfPlaylistService@@QAE?AW4SmfError@@ABHPAVQByteArray@@@Z @ 216 NONAME ; enum SmfError SmfPlaylistService::customRequest(int const &, class QByteArray *)
	?getStaticMetaObject@SmfLyricsService@@SAABUQMetaObject@@XZ @ 217 NONAME ; struct QMetaObject const & SmfLyricsService::getStaticMetaObject(void)
	?playlistUpdated@SmfPlaylistService@@IAEXW4SmfError@@@Z @ 218 NONAME ; void SmfPlaylistService::playlistUpdated(enum SmfError)
	?tr@SmfLyricsService@@SA?AVQString@@PBD0@Z @ 219 NONAME ; class QString SmfLyricsService::tr(char const *, char const *)
	?searchUserInfoAvailable@SmfMusicService@@IAEXPAV?$QList@VSmfMusicProfile@@@@W4SmfError@@USmfResultPage@@@Z @ 220 NONAME ; void SmfMusicService::searchUserInfoAvailable(class QList<class SmfMusicProfile> *, enum SmfError, struct SmfResultPage)
	?groups@SmfContactFetcher@@QAE?AW4SmfError@@HH@Z @ 221 NONAME ; enum SmfError SmfContactFetcher::groups(int, int)
	??_ESmfActivityFetcher@@UAE@I@Z @ 222 NONAME ; SmfActivityFetcher::~SmfActivityFetcher(unsigned int)
	??1SmfActivityFetcher@@UAE@XZ @ 223 NONAME ; SmfActivityFetcher::~SmfActivityFetcher(void)
	?tr@SmfClient@@SA?AVQString@@PBD0@Z @ 224 NONAME ; class QString SmfClient::tr(char const *, char const *)
	?tr@SmfContactFetcher@@SA?AVQString@@PBD0H@Z @ 225 NONAME ; class QString SmfContactFetcher::tr(char const *, char const *, int)
	?searchById@SmfRelationMgr@@QAEPAVSmfRelationItem@@ABVQString@@@Z @ 226 NONAME ; class SmfRelationItem * SmfRelationMgr::searchById(class QString const &)
	?eventsAvailable@SmfEventsFetcher@@IAEXPAV?$QList@VSmfEvent@@@@W4SmfError@@USmfResultPage@@@Z @ 227 NONAME ; void SmfEventsFetcher::eventsAvailable(class QList<class SmfEvent> *, enum SmfError, struct SmfResultPage)
	??0SmfMusicSearch@@QAE@PAVSmfProvider@@@Z @ 228 NONAME ; SmfMusicSearch::SmfMusicSearch(class SmfProvider *)
	?picturesAvailable@SmfGallery@@IAEXPAV?$QList@VSmfPicture@@@@W4SmfError@@USmfResultPage@@@Z @ 229 NONAME ; void SmfGallery::picturesAvailable(class QList<class SmfPicture> *, enum SmfError, struct SmfResultPage)
	?trUtf8@SmfLyricsService@@SA?AVQString@@PBD0H@Z @ 230 NONAME ; class QString SmfLyricsService::trUtf8(char const *, char const *, int)
	?postRating@SmfMusicService@@QAE?AW4SmfError@@VSmfTrackInfo@@VSmfMusicRating@@@Z @ 231 NONAME ; enum SmfError SmfMusicService::postRating(class SmfTrackInfo, class SmfMusicRating)
	?getProvider@SmfLyricsService@@ABEPAVSmfProvider@@XZ @ 232 NONAME ; class SmfProvider * SmfLyricsService::getProvider(void) const
	??1SmfLyricsService@@UAE@XZ @ 233 NONAME ; SmfLyricsService::~SmfLyricsService(void)
	?errorString@SmfClient@@QBE?AVQString@@ABW4SmfError@@@Z @ 234 NONAME ; class QString SmfClient::errorString(enum SmfError const &) const
	?postfinished@SmfMusicService@@IAEXW4SmfError@@@Z @ 235 NONAME ; void SmfMusicService::postfinished(enum SmfError)
	?qt_metacast@SmfMusicService@@UAEPAXPBD@Z @ 236 NONAME ; void * SmfMusicService::qt_metacast(char const *)
	?cancelRequest@SmfContactFetcher@@QAE?AW4SmfError@@XZ @ 237 NONAME ; enum SmfError SmfContactFetcher::cancelRequest(void)
	?staticMetaObject@SmfPlaylistService@@2UQMetaObject@@B @ 238 NONAME ; struct QMetaObject const SmfPlaylistService::staticMetaObject
	?trUtf8@SmfPlaylistService@@SA?AVQString@@PBD0H@Z @ 239 NONAME ; class QString SmfPlaylistService::trUtf8(char const *, char const *, int)
	?getStaticMetaObject@SmfActivityFetcher@@SAABUQMetaObject@@XZ @ 240 NONAME ; struct QMetaObject const & SmfActivityFetcher::getStaticMetaObject(void)
	?staticMetaObject@SmfPostProvider@@2UQMetaObject@@B @ 241 NONAME ; struct QMetaObject const SmfPostProvider::staticMetaObject
	?qt_metacall@SmfEventsFetcher@@UAEHW4Call@QMetaObject@@HPAPAX@Z @ 242 NONAME ; int SmfEventsFetcher::qt_metacall(enum QMetaObject::Call, int, void * *)
	?attendeesAvailable@SmfEventsFetcher@@IAEXPAV?$QList@VSmfContact@@@@W4SmfError@@USmfResultPage@@@Z @ 243 NONAME ; void SmfEventsFetcher::attendeesAvailable(class QList<class SmfContact> *, enum SmfError, struct SmfResultPage)
	?albums@SmfGallery@@QAE?AW4SmfError@@VQStringList@@PAVSmfContact@@HH@Z @ 244 NONAME ; enum SmfError SmfGallery::albums(class QStringList, class SmfContact *, int, int)
	?getContact@SmfRelationItem@@QBE?AVSmfContact@@XZ @ 245 NONAME ; class SmfContact SmfRelationItem::getContact(void) const
	??_ESmfLyricsService@@UAE@I@Z @ 246 NONAME ; SmfLyricsService::~SmfLyricsService(unsigned int)
	?postFinished@SmfPostProvider@@IAEXW4SmfError@@@Z @ 247 NONAME ; void SmfPostProvider::postFinished(enum SmfError)
	?customDataAvailable@SmfPostProvider@@IAEXHPAVQByteArray@@@Z @ 248 NONAME ; void SmfPostProvider::customDataAvailable(int, class QByteArray *)
	?trackInfo@SmfMusicSearch@@QAE?AW4SmfError@@VSmfMusicFingerPrint@@HH@Z @ 249 NONAME ; enum SmfError SmfMusicSearch::trackInfo(class SmfMusicFingerPrint, int, int)
	?customRequest@SmfPostProvider@@QAE?AW4SmfError@@ABHPAVQByteArray@@@Z @ 250 NONAME ; enum SmfError SmfPostProvider::customRequest(int const &, class QByteArray *)
	??_ESmfGallery@@UAE@I@Z @ 251 NONAME ; SmfGallery::~SmfGallery(unsigned int)
	?userMusicInfo@SmfMusicService@@QAE?AW4SmfError@@XZ @ 252 NONAME ; enum SmfError SmfMusicService::userMusicInfo(void)
	?lyrics@SmfLyricsService@@QAE?AW4SmfError@@VSmfTrackInfo@@HH@Z @ 253 NONAME ; enum SmfError SmfLyricsService::lyrics(class SmfTrackInfo, int, int)
	?followers@SmfContactFetcher@@QAE?AW4SmfError@@HH@Z @ 254 NONAME ; enum SmfError SmfContactFetcher::followers(int, int)
	?trUtf8@SmfMusicSearch@@SA?AVQString@@PBD0H@Z @ 255 NONAME ; class QString SmfMusicSearch::trUtf8(char const *, char const *, int)
	??_ESmfEventsFetcher@@UAE@I@Z @ 256 NONAME ; SmfEventsFetcher::~SmfEventsFetcher(unsigned int)
	?tr@SmfMusicSearch@@SA?AVQString@@PBD0H@Z @ 257 NONAME ; class QString SmfMusicSearch::tr(char const *, char const *, int)
	?customRequest@SmfMusicSearch@@QAE?AW4SmfError@@ABHPAVQByteArray@@@Z @ 258 NONAME ; enum SmfError SmfMusicSearch::customRequest(int const &, class QByteArray *)
	?cancelRequest@SmfMusicSearch@@QAE?AW4SmfError@@XZ @ 259 NONAME ; enum SmfError SmfMusicSearch::cancelRequest(void)
	?playlists@SmfPlaylistService@@QAE?AW4SmfError@@HH@Z @ 260 NONAME ; enum SmfError SmfPlaylistService::playlists(int, int)
	??0SmfRelationMgr@@QAE@PAVQObject@@@Z @ 261 NONAME ; SmfRelationMgr::SmfRelationMgr(class QObject *)
	?tr@SmfPlaylistService@@SA?AVQString@@PBD0H@Z @ 262 NONAME ; class QString SmfPlaylistService::tr(char const *, char const *, int)
	??0SmfContactFetcher@@QAE@PAVSmfProvider@@@Z @ 263 NONAME ; SmfContactFetcher::SmfContactFetcher(class SmfProvider *)
	?error@SmfClient@@AAEXW4ProcessError@QProcess@@@Z @ 264 NONAME ; void SmfClient::error(enum QProcess::ProcessError)
	?stateChanged@SmfClient@@AAEXW4ProcessState@QProcess@@@Z @ 265 NONAME ; void SmfClient::stateChanged(enum QProcess::ProcessState)
	?metaObject@SmfClient@@UBEPBUQMetaObject@@XZ @ 266 NONAME ; struct QMetaObject const * SmfClient::metaObject(void) const
	?searchContactFinished@SmfContactFetcher@@IAEXPAV?$QList@VSmfContact@@@@W4SmfError@@USmfResultPage@@@Z @ 267 NONAME ; void SmfContactFetcher::searchContactFinished(class QList<class SmfContact> *, enum SmfError, struct SmfResultPage)
	?eventsUpdated@SmfEventsFetcher@@IAEXW4SmfError@@@Z @ 268 NONAME ; void SmfEventsFetcher::eventsUpdated(enum SmfError)
	?customRequest@SmfActivityFetcher@@QAE?AW4SmfError@@ABHPAVQByteArray@@@Z @ 269 NONAME ; enum SmfError SmfActivityFetcher::customRequest(int const &, class QByteArray *)
	?customRequest@SmfEventsFetcher@@QAE?AW4SmfError@@ABHPAVQByteArray@@@Z @ 270 NONAME ; enum SmfError SmfEventsFetcher::customRequest(int const &, class QByteArray *)
	?qt_metacast@SmfLyricsService@@UAEPAXPBD@Z @ 271 NONAME ; void * SmfLyricsService::qt_metacast(char const *)
	?setIndex@SmfRelationItem@@QAEXI@Z @ 272 NONAME ; void SmfRelationItem::setIndex(unsigned int)
	?setProvider@SmfRelationItem@@QAEXAAVSmfProvider@@@Z @ 273 NONAME ; void SmfRelationItem::setProvider(class SmfProvider &)
	?postCurrentPlaying@SmfMusicService@@QAE?AW4SmfError@@VSmfTrackInfo@@@Z @ 274 NONAME ; enum SmfError SmfMusicService::postCurrentPlaying(class SmfTrackInfo)
	?metaObject@SmfRelationMgr@@UBEPBUQMetaObject@@XZ @ 275 NONAME ; struct QMetaObject const * SmfRelationMgr::metaObject(void) const
	?searchInGroup@SmfContactFetcher@@QAE?AW4SmfError@@VSmfGroup@@PAVSmfContact@@HH@Z @ 276 NONAME ; enum SmfError SmfContactFetcher::searchInGroup(class SmfGroup, class SmfContact *, int, int)
	?searchEventsInfoAvailable@SmfMusicService@@IAEXPAV?$QList@VSmfEvent@@@@W4SmfError@@USmfResultPage@@@Z @ 277 NONAME ; void SmfMusicService::searchEventsInfoAvailable(class QList<class SmfEvent> *, enum SmfError, struct SmfResultPage)
	?tr@SmfEventsFetcher@@SA?AVQString@@PBD0H@Z @ 278 NONAME ; class QString SmfEventsFetcher::tr(char const *, char const *, int)
	?playlistsListAvailable@SmfPlaylistService@@IAEXPAV?$QList@VSmfPlaylist@@@@W4SmfError@@USmfResultPage@@@Z @ 279 NONAME ; void SmfPlaylistService::playlistsListAvailable(class QList<class SmfPlaylist> *, enum SmfError, struct SmfResultPage)
	?qt_metacast@SmfContactFetcher@@UAEPAXPBD@Z @ 280 NONAME ; void * SmfContactFetcher::qt_metacast(char const *)
	?postAppearence@SmfPostProvider@@QAE?AW4SmfError@@W4SmfAppearenceInfo@@ABVQString@@@Z @ 281 NONAME ; enum SmfError SmfPostProvider::postAppearence(enum SmfAppearenceInfo, class QString const &)

