EXPORTS
	_ZN10SmfGallery11descriptionER10SmfPicture @ 1 NONAME
	_ZN10SmfGallery11postCommentE10SmfPicture10SmfComment @ 2 NONAME
	_ZN10SmfGallery11qt_metacallEN11QMetaObject4CallEiPPv @ 3 NONAME
	_ZN10SmfGallery11qt_metacastEPKc @ 4 NONAME
	_ZN10SmfGallery13customRequestERKiP10QByteArray @ 5 NONAME
	_ZN10SmfGallery14uploadFinishedE5QListI8SmfErrorE @ 6 NONAME
	_ZN10SmfGallery15albumsAvailableEP5QListI15SmfPictureAlbumE8SmfError13SmfResultPage @ 7 NONAME
	_ZN10SmfGallery16staticMetaObjectE @ 8 NONAME DATA 16
	_ZN10SmfGallery17picturesAvailableEP5QListI10SmfPictureE8SmfError13SmfResultPage @ 9 NONAME
	_ZN10SmfGallery19customDataAvailableEiP10QByteArray @ 10 NONAME
	_ZN10SmfGallery19getStaticMetaObjectEv @ 11 NONAME
	_ZN10SmfGallery20descriptionAvailableE7QString8SmfError @ 12 NONAME
	_ZN10SmfGallery6albumsE11QStringListP10SmfContactii @ 13 NONAME
	_ZN10SmfGallery6uploadEP10SmfPictureP15SmfPictureAlbum @ 14 NONAME
	_ZN10SmfGallery6uploadEP5QListI10SmfPictureEP15SmfPictureAlbum @ 15 NONAME
	_ZN10SmfGallery8picturesER5QListI15SmfPictureAlbumEii @ 16 NONAME
	_ZN10SmfGalleryC1EP11SmfProvider @ 17 NONAME
	_ZN10SmfGalleryC2EP11SmfProvider @ 18 NONAME
	_ZN10SmfGalleryD0Ev @ 19 NONAME
	_ZN10SmfGalleryD1Ev @ 20 NONAME
	_ZN10SmfGalleryD2Ev @ 21 NONAME
	_ZN14SmfMusicEvents10postEventsE5QListI8SmfEventE @ 22 NONAME
	_ZN14SmfMusicEvents11qt_metacallEN11QMetaObject4CallEiPPv @ 23 NONAME
	_ZN14SmfMusicEvents11qt_metacastEPKc @ 24 NONAME
	_ZN14SmfMusicEvents13customRequestERKiP10QByteArray @ 25 NONAME
	_ZN14SmfMusicEvents13eventsUpdatedE8SmfError @ 26 NONAME
	_ZN14SmfMusicEvents15eventsAvailableEP5QListI8SmfEventE8SmfError13SmfResultPage @ 27 NONAME
	_ZN14SmfMusicEvents15venuesAvailableEP5QListI11SmfLocationE8SmfError13SmfResultPage @ 28 NONAME
	_ZN14SmfMusicEvents16staticMetaObjectE @ 29 NONAME DATA 16
	_ZN14SmfMusicEvents19customDataAvailableERKiP10QByteArray @ 30 NONAME
	_ZN14SmfMusicEvents19getStaticMetaObjectEv @ 31 NONAME
	_ZN14SmfMusicEvents6eventsE11SmfLocationii @ 32 NONAME
	_ZN14SmfMusicEvents6venuesE11SmfLocationii @ 33 NONAME
	_ZN14SmfMusicEventsC1EP11SmfProvider @ 34 NONAME
	_ZN14SmfMusicEventsC2EP11SmfProvider @ 35 NONAME
	_ZN14SmfMusicEventsD0Ev @ 36 NONAME
	_ZN14SmfMusicEventsD1Ev @ 37 NONAME
	_ZN14SmfMusicEventsD2Ev @ 38 NONAME
	_ZN14SmfMusicSearch11qt_metacallEN11QMetaObject4CallEiPPv @ 39 NONAME
	_ZN14SmfMusicSearch11qt_metacastEPKc @ 40 NONAME
	_ZN14SmfMusicSearch13customRequestERKiP10QByteArray @ 41 NONAME
	_ZN14SmfMusicSearch15recommendationsE12SmfTrackInfoii @ 42 NONAME
	_ZN14SmfMusicSearch16staticMetaObjectE @ 43 NONAME DATA 16
	_ZN14SmfMusicSearch19customDataAvailableERKiP10QByteArray @ 44 NONAME
	_ZN14SmfMusicSearch19getStaticMetaObjectEv @ 45 NONAME
	_ZN14SmfMusicSearch20storeSearchAvailableEP5QListI11SmfProviderE8SmfError13SmfResultPage @ 46 NONAME
	_ZN14SmfMusicSearch20trackSearchAvailableEP5QListI12SmfTrackInfoE8SmfError13SmfResultPage @ 47 NONAME
	_ZN14SmfMusicSearch6storesE12SmfTrackInfoii @ 48 NONAME
	_ZN14SmfMusicSearch6tracksE12SmfTrackInfoii @ 49 NONAME
	_ZN14SmfMusicSearch9trackInfoE19SmfMusicFingerPrintii @ 50 NONAME
	_ZN14SmfMusicSearchC1EP11SmfProvider @ 51 NONAME
	_ZN14SmfMusicSearchC2EP11SmfProvider @ 52 NONAME
	_ZN14SmfMusicSearchD0Ev @ 53 NONAME
	_ZN14SmfMusicSearchD1Ev @ 54 NONAME
	_ZN14SmfMusicSearchD2Ev @ 55 NONAME
	_ZN14SmfRelationMgr10searchByIdERK7QString @ 56 NONAME
	_ZN14SmfRelationMgr11qt_metacallEN11QMetaObject4CallEiPPv @ 57 NONAME
	_ZN14SmfRelationMgr11qt_metacastEPKc @ 58 NONAME
	_ZN14SmfRelationMgr15getAllRelationsEv @ 59 NONAME
	_ZN14SmfRelationMgr15searchByContactE10SmfContact @ 60 NONAME
	_ZN14SmfRelationMgr16staticMetaObjectE @ 61 NONAME DATA 16
	_ZN14SmfRelationMgr19getStaticMetaObjectEv @ 62 NONAME
	_ZN14SmfRelationMgr3getER7QStringj @ 63 NONAME
	_ZN14SmfRelationMgr5countE7QString @ 64 NONAME
	_ZN14SmfRelationMgr6DeleteER7QString @ 65 NONAME
	_ZN14SmfRelationMgr6createEP11SmfProviderP10SmfContact @ 66 NONAME
	_ZN14SmfRelationMgr6getAllER7QString @ 67 NONAME
	_ZN14SmfRelationMgr6removeER7QStringPK10SmfContact @ 68 NONAME
	_ZN14SmfRelationMgr9associateER7QStringPK10SmfContactP11SmfProvider @ 69 NONAME
	_ZN14SmfRelationMgrC1EP7QObject @ 70 NONAME
	_ZN14SmfRelationMgrC2EP7QObject @ 71 NONAME
	_ZN14SmfRelationMgrD0Ev @ 72 NONAME
	_ZN14SmfRelationMgrD1Ev @ 73 NONAME
	_ZN14SmfRelationMgrD2Ev @ 74 NONAME
	_ZN15SmfMusicService10postRatingE12SmfTrackInfo14SmfMusicRating @ 75 NONAME
	_ZN15SmfMusicService10searchUserE11SmfLocationii @ 76 NONAME
	_ZN15SmfMusicService11qt_metacallEN11QMetaObject4CallEiPPv @ 77 NONAME
	_ZN15SmfMusicService11qt_metacastEPKc @ 78 NONAME
	_ZN15SmfMusicService12postCommentsE12SmfTrackInfo10SmfComment @ 79 NONAME
	_ZN15SmfMusicService12postfinishedE8SmfError @ 80 NONAME
	_ZN15SmfMusicService13customRequestERKiP10QByteArray @ 81 NONAME
	_ZN15SmfMusicService16staticMetaObjectE @ 82 NONAME DATA 16
	_ZN15SmfMusicService17userInfoAvailableEP15SmfMusicProfile8SmfError @ 83 NONAME
	_ZN15SmfMusicService18postCurrentPlayingE12SmfTrackInfo @ 84 NONAME
	_ZN15SmfMusicService19customDataAvailableERKiP10QByteArray @ 85 NONAME
	_ZN15SmfMusicService19getStaticMetaObjectEv @ 86 NONAME
	_ZN15SmfMusicService19searchInfoAvailableEP5QListI15SmfMusicProfileE8SmfError13SmfResultPage @ 87 NONAME
	_ZN15SmfMusicService8userinfoEv @ 88 NONAME
	_ZN15SmfMusicServiceC1EP11SmfProvider @ 89 NONAME
	_ZN15SmfMusicServiceC2EP11SmfProvider @ 90 NONAME
	_ZN15SmfMusicServiceD0Ev @ 91 NONAME
	_ZN15SmfMusicServiceD1Ev @ 92 NONAME
	_ZN15SmfMusicServiceD2Ev @ 93 NONAME
	_ZN15SmfPostProvider10updatePostER7SmfPost @ 94 NONAME
	_ZN15SmfPostProvider11qt_metacallEN11QMetaObject4CallEiPPv @ 95 NONAME
	_ZN15SmfPostProvider11qt_metacastEPKc @ 96 NONAME
	_ZN15SmfPostProvider12postDirectedER7SmfPostR10SmfContactP11SmfLocation @ 97 NONAME
	_ZN15SmfPostProvider12postFinishedE8SmfError @ 98 NONAME
	_ZN15SmfPostProvider13customRequestERKiP10QByteArray @ 99 NONAME
	_ZN15SmfPostProvider14commentOnAPostER7SmfPostS1_P11SmfLocation @ 100 NONAME
	_ZN15SmfPostProvider14postAppearenceE17SmfAppearenceInfoRK7QString @ 101 NONAME
	_ZN15SmfPostProvider14postsAvailableEP5QListI7SmfPostE8SmfError13SmfResultPage @ 102 NONAME
	_ZN15SmfPostProvider16staticMetaObjectE @ 103 NONAME DATA 16
	_ZN15SmfPostProvider19customDataAvailableEiP10QByteArray @ 104 NONAME
	_ZN15SmfPostProvider19getStaticMetaObjectEv @ 105 NONAME
	_ZN15SmfPostProvider4postER7SmfPostR11SmfLocation @ 106 NONAME
	_ZN15SmfPostProvider5postsEP10SmfContactii @ 107 NONAME
	_ZN15SmfPostProvider9sharePostER7SmfPostR10SmfContactb @ 108 NONAME
	_ZN15SmfPostProviderC1EP11SmfProvider @ 109 NONAME
	_ZN15SmfPostProviderC2EP11SmfProvider @ 110 NONAME
	_ZN15SmfPostProviderD0Ev @ 111 NONAME
	_ZN15SmfPostProviderD1Ev @ 112 NONAME
	_ZN15SmfPostProviderD2Ev @ 113 NONAME
	_ZN15SmfRelationItem10setContactER10SmfContact @ 114 NONAME
	_ZN15SmfRelationItem11setProviderER11SmfProvider @ 115 NONAME
	_ZN15SmfRelationItem8setIndexEj @ 116 NONAME
	_ZN15SmfRelationItemC1EP11SmfProvider @ 117 NONAME
	_ZN15SmfRelationItemC2EP11SmfProvider @ 118 NONAME
	_ZN16SmfLyricsService11qt_metacallEN11QMetaObject4CallEiPPv @ 119 NONAME
	_ZN16SmfLyricsService11qt_metacastEPKc @ 120 NONAME
	_ZN16SmfLyricsService13customRequestERKiP10QByteArray @ 121 NONAME
	_ZN16SmfLyricsService15lyricsAvailableEP5QListI9SmfLyricsE8SmfError13SmfResultPage @ 122 NONAME
	_ZN16SmfLyricsService16staticMetaObjectE @ 123 NONAME DATA 16
	_ZN16SmfLyricsService17subtitleAvailableEP5QListI11SmfSubtitleE8SmfError13SmfResultPage @ 124 NONAME
	_ZN16SmfLyricsService19customDataAvailableERKiP10QByteArray @ 125 NONAME
	_ZN16SmfLyricsService19getStaticMetaObjectEv @ 126 NONAME
	_ZN16SmfLyricsService6lyricsE12SmfTrackInfoii @ 127 NONAME
	_ZN16SmfLyricsService9subtitlesE12SmfTrackInfo23SmfSubtitleSearchFilterii @ 128 NONAME
	_ZN16SmfLyricsServiceC1EP11SmfProvider @ 129 NONAME
	_ZN16SmfLyricsServiceC2EP11SmfProvider @ 130 NONAME
	_ZN16SmfLyricsServiceD0Ev @ 131 NONAME
	_ZN16SmfLyricsServiceD1Ev @ 132 NONAME
	_ZN16SmfLyricsServiceD2Ev @ 133 NONAME
	_ZN17SmfContactFetcher10searchNearEP11SmfLocation25SmfLocationSearchBoundaryii @ 134 NONAME
	_ZN17SmfContactFetcher11qt_metacallEN11QMetaObject4CallEiPPv @ 135 NONAME
	_ZN17SmfContactFetcher11qt_metacastEPKc @ 136 NONAME
	_ZN17SmfContactFetcher13customRequestERKiP10QByteArray @ 137 NONAME
	_ZN17SmfContactFetcher13searchInGroupE8SmfGroupii @ 138 NONAME
	_ZN17SmfContactFetcher16staticMetaObjectE @ 139 NONAME DATA 16
	_ZN17SmfContactFetcher18groupListAvailableEP5QListI8SmfGroupE8SmfError13SmfResultPage @ 140 NONAME
	_ZN17SmfContactFetcher18searchNearFinishedEP5QListI10SmfContactE8SmfError13SmfResultPage @ 141 NONAME
	_ZN17SmfContactFetcher19customDataAvailableEiP10QByteArray @ 142 NONAME
	_ZN17SmfContactFetcher19getStaticMetaObjectEv @ 143 NONAME
	_ZN17SmfContactFetcher20friendsListAvailableEP5QListI10SmfContactE8SmfError13SmfResultPage @ 144 NONAME
	_ZN17SmfContactFetcher21searchContactFinishedEP5QListI10SmfContactE8SmfError13SmfResultPage @ 145 NONAME
	_ZN17SmfContactFetcher21searchInGroupFinishedEP5QListI10SmfContactE8SmfError13SmfResultPage @ 146 NONAME
	_ZN17SmfContactFetcher22followersListAvailableEP5QListI10SmfContactE8SmfError13SmfResultPage @ 147 NONAME
	_ZN17SmfContactFetcher6groupsEii @ 148 NONAME
	_ZN17SmfContactFetcher6searchEP10SmfContactii @ 149 NONAME
	_ZN17SmfContactFetcher7friendsEii @ 150 NONAME
	_ZN17SmfContactFetcher9followersEii @ 151 NONAME
	_ZN17SmfContactFetcherC1EP11SmfProvider @ 152 NONAME
	_ZN17SmfContactFetcherC1EP11SmfProviderP10SmfContact @ 153 NONAME
	_ZN17SmfContactFetcherC2EP11SmfProvider @ 154 NONAME
	_ZN17SmfContactFetcherC2EP11SmfProviderP10SmfContact @ 155 NONAME
	_ZN17SmfContactFetcherD0Ev @ 156 NONAME
	_ZN17SmfContactFetcherD1Ev @ 157 NONAME
	_ZN17SmfContactFetcherD2Ev @ 158 NONAME
	_ZN18SmfActivityFetcher11qt_metacallEN11QMetaObject4CallEiPPv @ 159 NONAME
	_ZN18SmfActivityFetcher11qt_metacastEPKc @ 160 NONAME
	_ZN18SmfActivityFetcher13customRequestERKiP10QByteArray @ 161 NONAME
	_ZN18SmfActivityFetcher14selfActivitiesEii @ 162 NONAME
	_ZN18SmfActivityFetcher16resultsAvailableEP5QListI16SmfActivityEntryE8SmfError13SmfResultPage @ 163 NONAME
	_ZN18SmfActivityFetcher16staticMetaObjectE @ 164 NONAME DATA 16
	_ZN18SmfActivityFetcher17friendsActivitiesERK10SmfContactii @ 165 NONAME
	_ZN18SmfActivityFetcher19customDataAvailableERKiP10QByteArray @ 166 NONAME
	_ZN18SmfActivityFetcher19getStaticMetaObjectEv @ 167 NONAME
	_ZN18SmfActivityFetcher8filteredE5QListI21SmfActivityObjectTypeEii @ 168 NONAME
	_ZN18SmfActivityFetcherC1EP11SmfProvider @ 169 NONAME
	_ZN18SmfActivityFetcherC2EP11SmfProvider @ 170 NONAME
	_ZN18SmfActivityFetcherD0Ev @ 171 NONAME
	_ZN18SmfActivityFetcherD1Ev @ 172 NONAME
	_ZN18SmfActivityFetcherD2Ev @ 173 NONAME
	_ZN18SmfPlaylistService11playlistsOfEP15SmfMusicProfileii @ 174 NONAME
	_ZN18SmfPlaylistService11qt_metacallEN11QMetaObject4CallEiPPv @ 175 NONAME
	_ZN18SmfPlaylistService11qt_metacastEPKc @ 176 NONAME
	_ZN18SmfPlaylistService13addToPlaylistE11SmfPlaylistP5QListI12SmfTrackInfoE @ 177 NONAME
	_ZN18SmfPlaylistService13customRequestERKiP10QByteArray @ 178 NONAME
	_ZN18SmfPlaylistService15playlistUpdatedE8SmfError @ 179 NONAME
	_ZN18SmfPlaylistService16staticMetaObjectE @ 180 NONAME DATA 16
	_ZN18SmfPlaylistService19customDataAvailableERKiP10QByteArray @ 181 NONAME
	_ZN18SmfPlaylistService19getStaticMetaObjectEv @ 182 NONAME
	_ZN18SmfPlaylistService22playlistsListAvailableEP5QListI11SmfPlaylistE8SmfError13SmfResultPage @ 183 NONAME
	_ZN18SmfPlaylistService26postCurrentPlayingPlaylistE11SmfPlaylist @ 184 NONAME
	_ZN18SmfPlaylistService9playlistsEii @ 185 NONAME
	_ZN18SmfPlaylistServiceC1EP11SmfProvider @ 186 NONAME
	_ZN18SmfPlaylistServiceC2EP11SmfProvider @ 187 NONAME
	_ZN18SmfPlaylistServiceD0Ev @ 188 NONAME
	_ZN18SmfPlaylistServiceD1Ev @ 189 NONAME
	_ZN18SmfPlaylistServiceD2Ev @ 190 NONAME
	_ZN9SmfClient11GetServicesERK7QString @ 191 NONAME
	_ZN9SmfClientC1Ev @ 192 NONAME
	_ZN9SmfClientC2Ev @ 193 NONAME
	_ZN9SmfClientD1Ev @ 194 NONAME
	_ZN9SmfClientD2Ev @ 195 NONAME
	_ZNK10SmfGallery10metaObjectEv @ 196 NONAME
	_ZNK10SmfGallery11getProviderEv @ 197 NONAME
	_ZNK14SmfMusicEvents10metaObjectEv @ 198 NONAME
	_ZNK14SmfMusicEvents11getProviderEv @ 199 NONAME
	_ZNK14SmfMusicSearch10metaObjectEv @ 200 NONAME
	_ZNK14SmfMusicSearch11getProviderEv @ 201 NONAME
	_ZNK14SmfRelationMgr10metaObjectEv @ 202 NONAME
	_ZNK15SmfMusicService10metaObjectEv @ 203 NONAME
	_ZNK15SmfMusicService11getProviderEv @ 204 NONAME
	_ZNK15SmfPostProvider10metaObjectEv @ 205 NONAME
	_ZNK15SmfPostProvider11getProviderEv @ 206 NONAME
	_ZNK15SmfPostProvider14maxCharsInPostEv @ 207 NONAME
	_ZNK15SmfPostProvider16supportedFormatsEv @ 208 NONAME
	_ZNK15SmfPostProvider18supportsAppearenceEv @ 209 NONAME
	_ZNK15SmfPostProvider8maxItemsEv @ 210 NONAME
	_ZNK15SmfRelationItem10getContactEv @ 211 NONAME
	_ZNK15SmfRelationItem11getProviderEv @ 212 NONAME
	_ZNK15SmfRelationItem8getIndexEv @ 213 NONAME
	_ZNK16SmfLyricsService10metaObjectEv @ 214 NONAME
	_ZNK16SmfLyricsService11getProviderEv @ 215 NONAME
	_ZNK17SmfContactFetcher10metaObjectEv @ 216 NONAME
	_ZNK17SmfContactFetcher11getProviderEv @ 217 NONAME
	_ZNK18SmfActivityFetcher10metaObjectEv @ 218 NONAME
	_ZNK18SmfActivityFetcher11getProviderEv @ 219 NONAME
	_ZNK18SmfPlaylistService10metaObjectEv @ 220 NONAME
	_ZNK18SmfPlaylistService11getProviderEv @ 221 NONAME
	_ZNK9SmfClient11errorStringERK8SmfError @ 222 NONAME
	_ZTI10SmfGallery @ 223 NONAME
	_ZTI14SmfMusicEvents @ 224 NONAME
	_ZTI14SmfMusicSearch @ 225 NONAME
	_ZTI14SmfRelationMgr @ 226 NONAME
	_ZTI15SmfMusicService @ 227 NONAME
	_ZTI15SmfPostProvider @ 228 NONAME
	_ZTI16SmfClientPrivate @ 229 NONAME
	_ZTI16SmfLyricsService @ 230 NONAME
	_ZTI17CSmfClientSymbian @ 231 NONAME
	_ZTI17SmfContactFetcher @ 232 NONAME
	_ZTI17SmfGalleryPrivate @ 233 NONAME
	_ZTI18SmfActivityFetcher @ 234 NONAME
	_ZTI18SmfPlaylistService @ 235 NONAME
	_ZTI21SmfMusicEventsPrivate @ 236 NONAME
	_ZTI21SmfMusicSearchPrivate @ 237 NONAME
	_ZTI22SmfMusicServicePrivate @ 238 NONAME
	_ZTI22SmfPostProviderPrivate @ 239 NONAME
	_ZTI23SmfLyricsServicePrivate @ 240 NONAME
	_ZTI24SmfContactFetcherPrivate @ 241 NONAME
	_ZTI25SmfActivityFetcherPrivate @ 242 NONAME
	_ZTI25SmfPlaylistServicePrivate @ 243 NONAME
	_ZTV10SmfGallery @ 244 NONAME
	_ZTV14SmfMusicEvents @ 245 NONAME
	_ZTV14SmfMusicSearch @ 246 NONAME
	_ZTV14SmfRelationMgr @ 247 NONAME
	_ZTV15SmfMusicService @ 248 NONAME
	_ZTV15SmfPostProvider @ 249 NONAME
	_ZTV16SmfClientPrivate @ 250 NONAME
	_ZTV16SmfLyricsService @ 251 NONAME
	_ZTV17CSmfClientSymbian @ 252 NONAME
	_ZTV17SmfContactFetcher @ 253 NONAME
	_ZTV17SmfGalleryPrivate @ 254 NONAME
	_ZTV18SmfActivityFetcher @ 255 NONAME
	_ZTV18SmfPlaylistService @ 256 NONAME
	_ZTV21SmfMusicEventsPrivate @ 257 NONAME
	_ZTV21SmfMusicSearchPrivate @ 258 NONAME
	_ZTV22SmfMusicServicePrivate @ 259 NONAME
	_ZTV22SmfPostProviderPrivate @ 260 NONAME
	_ZTV23SmfLyricsServicePrivate @ 261 NONAME
	_ZTV24SmfContactFetcherPrivate @ 262 NONAME
	_ZTV25SmfActivityFetcherPrivate @ 263 NONAME
	_ZTV25SmfPlaylistServicePrivate @ 264 NONAME
	_ZlsR11QDataStreamRK15SmfRelationItem @ 265 NONAME
	_ZrsR11QDataStreamR15SmfRelationItem @ 266 NONAME

