EXPORTS
	??0SmfAlbum@@QAE@ABV0@@Z @ 1 NONAME ; SmfAlbum::SmfAlbum(class SmfAlbum const &)
	??0SmfAlbum@@QAE@XZ @ 2 NONAME ; SmfAlbum::SmfAlbum(void)
	??0SmfArtists@@QAE@ABV0@@Z @ 3 NONAME ; SmfArtists::SmfArtists(class SmfArtists const &)
	??0SmfArtists@@QAE@XZ @ 4 NONAME ; SmfArtists::SmfArtists(void)
	??0SmfClient@@QAE@XZ @ 5 NONAME ; SmfClient::SmfClient(void)
	??0SmfComment@@QAE@ABV0@@Z @ 6 NONAME ; SmfComment::SmfComment(class SmfComment const &)
	??0SmfComment@@QAE@XZ @ 7 NONAME ; SmfComment::SmfComment(void)
	??0SmfContact@@QAE@ABV0@@Z @ 8 NONAME ; SmfContact::SmfContact(class SmfContact const &)
	??0SmfContact@@QAE@PAVQObject@@@Z @ 9 NONAME ; SmfContact::SmfContact(class QObject *)
	??0SmfContactFetcher@@QAE@PAVSmfProvider@@@Z @ 10 NONAME ; SmfContactFetcher::SmfContactFetcher(class SmfProvider *)
	??0SmfContactFetcher@@QAE@PAVSmfProvider@@PAVSmfContact@@@Z @ 11 NONAME ; SmfContactFetcher::SmfContactFetcher(class SmfProvider *, class SmfContact *)
	??0SmfEvent@@QAE@ABV0@@Z @ 12 NONAME ; SmfEvent::SmfEvent(class SmfEvent const &)
	??0SmfEvent@@QAE@XZ @ 13 NONAME ; SmfEvent::SmfEvent(void)
	??0SmfGallery@@QAE@PAVSmfProvider@@@Z @ 14 NONAME ; SmfGallery::SmfGallery(class SmfProvider *)
	??0SmfGroup@@QAE@ABV0@@Z @ 15 NONAME ; SmfGroup::SmfGroup(class SmfGroup const &)
	??0SmfGroup@@QAE@PAV?$QList@VSmfContact@@@@@Z @ 16 NONAME ; SmfGroup::SmfGroup(class QList<class SmfContact> *)
	??0SmfLocation@@QAE@ABV0@@Z @ 17 NONAME ; SmfLocation::SmfLocation(class SmfLocation const &)
	??0SmfLocation@@QAE@XZ @ 18 NONAME ; SmfLocation::SmfLocation(void)
	??0SmfLyrics@@QAE@ABV0@@Z @ 19 NONAME ; SmfLyrics::SmfLyrics(class SmfLyrics const &)
	??0SmfLyrics@@QAE@XZ @ 20 NONAME ; SmfLyrics::SmfLyrics(void)
	??0SmfMusicFingerPrint@@QAE@ABV0@@Z @ 21 NONAME ; SmfMusicFingerPrint::SmfMusicFingerPrint(class SmfMusicFingerPrint const &)
	??0SmfMusicFingerPrint@@QAE@XZ @ 22 NONAME ; SmfMusicFingerPrint::SmfMusicFingerPrint(void)
	??0SmfMusicProfile@@QAE@ABV0@@Z @ 23 NONAME ; SmfMusicProfile::SmfMusicProfile(class SmfMusicProfile const &)
	??0SmfMusicProfile@@QAE@XZ @ 24 NONAME ; SmfMusicProfile::SmfMusicProfile(void)
	??0SmfMusicRating@@QAE@ABV0@@Z @ 25 NONAME ; SmfMusicRating::SmfMusicRating(class SmfMusicRating const &)
	??0SmfMusicRating@@QAE@PAVSmfTrackInfo@@@Z @ 26 NONAME ; SmfMusicRating::SmfMusicRating(class SmfTrackInfo *)
	??0SmfPicture@@QAE@ABV0@@Z @ 27 NONAME ; SmfPicture::SmfPicture(class SmfPicture const &)
	??0SmfPicture@@QAE@ABVQImage@@@Z @ 28 NONAME ; SmfPicture::SmfPicture(class QImage const &)
	??0SmfPicture@@QAE@XZ @ 29 NONAME ; SmfPicture::SmfPicture(void)
	??0SmfPlaylist@@QAE@ABV0@@Z @ 30 NONAME ; SmfPlaylist::SmfPlaylist(class SmfPlaylist const &)
	??0SmfPlaylist@@QAE@XZ @ 31 NONAME ; SmfPlaylist::SmfPlaylist(void)
	??0SmfPluginUtil@@AAE@XZ @ 32 NONAME ; SmfPluginUtil::SmfPluginUtil(void)
	??0SmfPost@@QAE@ABV0@@Z @ 33 NONAME ; SmfPost::SmfPost(class SmfPost const &)
	??0SmfPost@@QAE@VQString@@0VQImage@@VQUrl@@@Z @ 34 NONAME ; SmfPost::SmfPost(class QString, class QString, class QImage, class QUrl)
	??0SmfPost@@QAE@XZ @ 35 NONAME ; SmfPost::SmfPost(void)
	??0SmfPostProvider@@QAE@PAVSmfProvider@@@Z @ 36 NONAME ; SmfPostProvider::SmfPostProvider(class SmfProvider *)
	??0SmfProvider@@QAE@ABV0@@Z @ 37 NONAME ; SmfProvider::SmfProvider(class SmfProvider const &)
	??0SmfProvider@@QAE@PAVQObject@@@Z @ 38 NONAME ; SmfProvider::SmfProvider(class QObject *)
	??0SmfSubtitle@@QAE@ABV0@@Z @ 39 NONAME ; SmfSubtitle::SmfSubtitle(class SmfSubtitle const &)
	??0SmfSubtitle@@QAE@XZ @ 40 NONAME ; SmfSubtitle::SmfSubtitle(void)
	??0SmfTrackInfo@@QAE@ABV0@@Z @ 41 NONAME ; SmfTrackInfo::SmfTrackInfo(class SmfTrackInfo const &)
	??0SmfTrackInfo@@QAE@XZ @ 42 NONAME ; SmfTrackInfo::SmfTrackInfo(void)
	??1SmfAlbum@@QAE@XZ @ 43 NONAME ; SmfAlbum::~SmfAlbum(void)
	??1SmfArtists@@QAE@XZ @ 44 NONAME ; SmfArtists::~SmfArtists(void)
	??1SmfClient@@QAE@XZ @ 45 NONAME ; SmfClient::~SmfClient(void)
	??1SmfComment@@QAE@XZ @ 46 NONAME ; SmfComment::~SmfComment(void)
	??1SmfContact@@QAE@XZ @ 47 NONAME ; SmfContact::~SmfContact(void)
	??1SmfContactFetcher@@UAE@XZ @ 48 NONAME ; SmfContactFetcher::~SmfContactFetcher(void)
	??1SmfEvent@@QAE@XZ @ 49 NONAME ; SmfEvent::~SmfEvent(void)
	??1SmfGallery@@UAE@XZ @ 50 NONAME ; SmfGallery::~SmfGallery(void)
	??1SmfGroup@@QAE@XZ @ 51 NONAME ; SmfGroup::~SmfGroup(void)
	??1SmfLocation@@QAE@XZ @ 52 NONAME ; SmfLocation::~SmfLocation(void)
	??1SmfLyrics@@QAE@XZ @ 53 NONAME ; SmfLyrics::~SmfLyrics(void)
	??1SmfMusicFingerPrint@@QAE@XZ @ 54 NONAME ; SmfMusicFingerPrint::~SmfMusicFingerPrint(void)
	??1SmfMusicProfile@@QAE@XZ @ 55 NONAME ; SmfMusicProfile::~SmfMusicProfile(void)
	??1SmfMusicRating@@QAE@XZ @ 56 NONAME ; SmfMusicRating::~SmfMusicRating(void)
	??1SmfPicture@@QAE@XZ @ 57 NONAME ; SmfPicture::~SmfPicture(void)
	??1SmfPlaylist@@QAE@XZ @ 58 NONAME ; SmfPlaylist::~SmfPlaylist(void)
	??1SmfPluginUtil@@QAE@XZ @ 59 NONAME ; SmfPluginUtil::~SmfPluginUtil(void)
	??1SmfPost@@QAE@XZ @ 60 NONAME ; SmfPost::~SmfPost(void)
	??1SmfPostProvider@@UAE@XZ @ 61 NONAME ; SmfPostProvider::~SmfPostProvider(void)
	??1SmfProvider@@QAE@XZ @ 62 NONAME ; SmfProvider::~SmfProvider(void)
	??1SmfSubtitle@@QAE@XZ @ 63 NONAME ; SmfSubtitle::~SmfSubtitle(void)
	??1SmfTrackInfo@@QAE@XZ @ 64 NONAME ; SmfTrackInfo::~SmfTrackInfo(void)
	??4SmfAlbum@@QAEAAV0@ABV0@@Z @ 65 NONAME ; class SmfAlbum & SmfAlbum::operator=(class SmfAlbum const &)
	??4SmfArtists@@QAEAAV0@ABV0@@Z @ 66 NONAME ; class SmfArtists & SmfArtists::operator=(class SmfArtists const &)
	??4SmfComment@@QAEAAV0@ABV0@@Z @ 67 NONAME ; class SmfComment & SmfComment::operator=(class SmfComment const &)
	??4SmfEvent@@QAEAAV0@ABV0@@Z @ 68 NONAME ; class SmfEvent & SmfEvent::operator=(class SmfEvent const &)
	??4SmfGroup@@QAEAAV0@ABV0@@Z @ 69 NONAME ; class SmfGroup & SmfGroup::operator=(class SmfGroup const &)
	??4SmfLocation@@QAEAAV0@ABV0@@Z @ 70 NONAME ; class SmfLocation & SmfLocation::operator=(class SmfLocation const &)
	??4SmfLyrics@@QAEAAV0@ABV0@@Z @ 71 NONAME ; class SmfLyrics & SmfLyrics::operator=(class SmfLyrics const &)
	??4SmfMusicFingerPrint@@QAEAAV0@ABV0@@Z @ 72 NONAME ; class SmfMusicFingerPrint & SmfMusicFingerPrint::operator=(class SmfMusicFingerPrint const &)
	??4SmfMusicProfile@@QAEAAV0@ABV0@@Z @ 73 NONAME ; class SmfMusicProfile & SmfMusicProfile::operator=(class SmfMusicProfile const &)
	??4SmfMusicRating@@QAEAAV0@ABV0@@Z @ 74 NONAME ; class SmfMusicRating & SmfMusicRating::operator=(class SmfMusicRating const &)
	??4SmfPicture@@QAEAAV0@ABV0@@Z @ 75 NONAME ; class SmfPicture & SmfPicture::operator=(class SmfPicture const &)
	??4SmfPlaylist@@QAEAAV0@ABV0@@Z @ 76 NONAME ; class SmfPlaylist & SmfPlaylist::operator=(class SmfPlaylist const &)
	??4SmfPost@@QAEAAV0@ABV0@@Z @ 77 NONAME ; class SmfPost & SmfPost::operator=(class SmfPost const &)
	??4SmfSubtitle@@QAEAAV0@ABV0@@Z @ 78 NONAME ; class SmfSubtitle & SmfSubtitle::operator=(class SmfSubtitle const &)
	??4SmfTrackInfo@@QAEAAV0@ABV0@@Z @ 79 NONAME ; class SmfTrackInfo & SmfTrackInfo::operator=(class SmfTrackInfo const &)
	??5@YAAAVQDataStream@@AAV0@AAVQContactName@QtMobility@@@Z @ 80 NONAME ; class QDataStream & operator>>(class QDataStream &, class QtMobility::QContactName &)
	??5@YAAAVQDataStream@@AAV0@AAVSmfAlbum@@@Z @ 81 NONAME ; class QDataStream & operator>>(class QDataStream &, class SmfAlbum &)
	??5@YAAAVQDataStream@@AAV0@AAVSmfArtists@@@Z @ 82 NONAME ; class QDataStream & operator>>(class QDataStream &, class SmfArtists &)
	??5@YAAAVQDataStream@@AAV0@AAVSmfComment@@@Z @ 83 NONAME ; class QDataStream & operator>>(class QDataStream &, class SmfComment &)
	??5@YAAAVQDataStream@@AAV0@AAVSmfContact@@@Z @ 84 NONAME ; class QDataStream & operator>>(class QDataStream &, class SmfContact &)
	??5@YAAAVQDataStream@@AAV0@AAVSmfEvent@@@Z @ 85 NONAME ; class QDataStream & operator>>(class QDataStream &, class SmfEvent &)
	??5@YAAAVQDataStream@@AAV0@AAVSmfGroup@@@Z @ 86 NONAME ; class QDataStream & operator>>(class QDataStream &, class SmfGroup &)
	??5@YAAAVQDataStream@@AAV0@AAVSmfLocation@@@Z @ 87 NONAME ; class QDataStream & operator>>(class QDataStream &, class SmfLocation &)
	??5@YAAAVQDataStream@@AAV0@AAVSmfLyrics@@@Z @ 88 NONAME ; class QDataStream & operator>>(class QDataStream &, class SmfLyrics &)
	??5@YAAAVQDataStream@@AAV0@AAVSmfMusicFingerPrint@@@Z @ 89 NONAME ; class QDataStream & operator>>(class QDataStream &, class SmfMusicFingerPrint &)
	??5@YAAAVQDataStream@@AAV0@AAVSmfMusicProfile@@@Z @ 90 NONAME ; class QDataStream & operator>>(class QDataStream &, class SmfMusicProfile &)
	??5@YAAAVQDataStream@@AAV0@AAVSmfMusicRating@@@Z @ 91 NONAME ; class QDataStream & operator>>(class QDataStream &, class SmfMusicRating &)
	??5@YAAAVQDataStream@@AAV0@AAVSmfPicture@@@Z @ 92 NONAME ; class QDataStream & operator>>(class QDataStream &, class SmfPicture &)
	??5@YAAAVQDataStream@@AAV0@AAVSmfPlaylist@@@Z @ 93 NONAME ; class QDataStream & operator>>(class QDataStream &, class SmfPlaylist &)
	??5@YAAAVQDataStream@@AAV0@AAVSmfPost@@@Z @ 94 NONAME ; class QDataStream & operator>>(class QDataStream &, class SmfPost &)
	??5@YAAAVQDataStream@@AAV0@AAVSmfProvider@@@Z @ 95 NONAME ; class QDataStream & operator>>(class QDataStream &, class SmfProvider &)
	??5@YAAAVQDataStream@@AAV0@AAVSmfSubtitle@@@Z @ 96 NONAME ; class QDataStream & operator>>(class QDataStream &, class SmfSubtitle &)
	??5@YAAAVQDataStream@@AAV0@AAVSmfTrackInfo@@@Z @ 97 NONAME ; class QDataStream & operator>>(class QDataStream &, class SmfTrackInfo &)
	??6@YAAAVQDataStream@@AAV0@ABVQContactName@QtMobility@@@Z @ 98 NONAME ; class QDataStream & operator<<(class QDataStream &, class QtMobility::QContactName const &)
	??6@YAAAVQDataStream@@AAV0@ABVSmfAlbum@@@Z @ 99 NONAME ; class QDataStream & operator<<(class QDataStream &, class SmfAlbum const &)
	??6@YAAAVQDataStream@@AAV0@ABVSmfArtists@@@Z @ 100 NONAME ; class QDataStream & operator<<(class QDataStream &, class SmfArtists const &)
	??6@YAAAVQDataStream@@AAV0@ABVSmfComment@@@Z @ 101 NONAME ; class QDataStream & operator<<(class QDataStream &, class SmfComment const &)
	??6@YAAAVQDataStream@@AAV0@ABVSmfContact@@@Z @ 102 NONAME ; class QDataStream & operator<<(class QDataStream &, class SmfContact const &)
	??6@YAAAVQDataStream@@AAV0@ABVSmfEvent@@@Z @ 103 NONAME ; class QDataStream & operator<<(class QDataStream &, class SmfEvent const &)
	??6@YAAAVQDataStream@@AAV0@ABVSmfGroup@@@Z @ 104 NONAME ; class QDataStream & operator<<(class QDataStream &, class SmfGroup const &)
	??6@YAAAVQDataStream@@AAV0@ABVSmfLocation@@@Z @ 105 NONAME ; class QDataStream & operator<<(class QDataStream &, class SmfLocation const &)
	??6@YAAAVQDataStream@@AAV0@ABVSmfLyrics@@@Z @ 106 NONAME ; class QDataStream & operator<<(class QDataStream &, class SmfLyrics const &)
	??6@YAAAVQDataStream@@AAV0@ABVSmfMusicFingerPrint@@@Z @ 107 NONAME ; class QDataStream & operator<<(class QDataStream &, class SmfMusicFingerPrint const &)
	??6@YAAAVQDataStream@@AAV0@ABVSmfMusicProfile@@@Z @ 108 NONAME ; class QDataStream & operator<<(class QDataStream &, class SmfMusicProfile const &)
	??6@YAAAVQDataStream@@AAV0@ABVSmfMusicRating@@@Z @ 109 NONAME ; class QDataStream & operator<<(class QDataStream &, class SmfMusicRating const &)
	??6@YAAAVQDataStream@@AAV0@ABVSmfPicture@@@Z @ 110 NONAME ; class QDataStream & operator<<(class QDataStream &, class SmfPicture const &)
	??6@YAAAVQDataStream@@AAV0@ABVSmfPlaylist@@@Z @ 111 NONAME ; class QDataStream & operator<<(class QDataStream &, class SmfPlaylist const &)
	??6@YAAAVQDataStream@@AAV0@ABVSmfPost@@@Z @ 112 NONAME ; class QDataStream & operator<<(class QDataStream &, class SmfPost const &)
	??6@YAAAVQDataStream@@AAV0@ABVSmfProvider@@@Z @ 113 NONAME ; class QDataStream & operator<<(class QDataStream &, class SmfProvider const &)
	??6@YAAAVQDataStream@@AAV0@ABVSmfSubtitle@@@Z @ 114 NONAME ; class QDataStream & operator<<(class QDataStream &, class SmfSubtitle const &)
	??6@YAAAVQDataStream@@AAV0@ABVSmfTrackInfo@@@Z @ 115 NONAME ; class QDataStream & operator<<(class QDataStream &, class SmfTrackInfo const &)
	??_ESmfComment@@QAE@I@Z @ 116 NONAME ; SmfComment::~SmfComment(unsigned int)
	??_ESmfContact@@QAE@I@Z @ 117 NONAME ; SmfContact::~SmfContact(unsigned int)
	??_ESmfContactFetcher@@UAE@I@Z @ 118 NONAME ; SmfContactFetcher::~SmfContactFetcher(unsigned int)
	??_ESmfEvent@@QAE@I@Z @ 119 NONAME ; SmfEvent::~SmfEvent(unsigned int)
	??_ESmfGallery@@UAE@I@Z @ 120 NONAME ; SmfGallery::~SmfGallery(unsigned int)
	??_ESmfGroup@@QAE@I@Z @ 121 NONAME ; SmfGroup::~SmfGroup(unsigned int)
	??_ESmfPicture@@QAE@I@Z @ 122 NONAME ; SmfPicture::~SmfPicture(unsigned int)
	??_ESmfPluginUtil@@QAE@I@Z @ 123 NONAME ; SmfPluginUtil::~SmfPluginUtil(unsigned int)
	??_ESmfPost@@QAE@I@Z @ 124 NONAME ; SmfPost::~SmfPost(unsigned int)
	??_ESmfPostProvider@@UAE@I@Z @ 125 NONAME ; SmfPostProvider::~SmfPostProvider(unsigned int)
	??_ESmfProvider@@QAE@I@Z @ 126 NONAME ; SmfProvider::~SmfProvider(unsigned int)
	??_ESmfTrackInfo@@QAE@I@Z @ 127 NONAME ; SmfTrackInfo::~SmfTrackInfo(unsigned int)
	?GetServices@SmfClient@@QAEPAV?$QList@VSmfProvider@@@@ABVQString@@@Z @ 128 NONAME ; class QList<class SmfProvider> * SmfClient::GetServices(class QString const &)
	?addComment@SmfPicture@@QAEXABVSmfComment@@@Z @ 129 NONAME ; void SmfPicture::addComment(class SmfComment const &)
	?addTags@SmfPicture@@QAEXABVQStringList@@@Z @ 130 NONAME ; void SmfPicture::addTags(class QStringList const &)
	?album@SmfTrackInfo@@QBE?AVSmfAlbum@@XZ @ 131 NONAME ; class SmfAlbum SmfTrackInfo::album(void) const
	?applicationUrl@SmfProvider@@QAEXAAVQUrl@@@Z @ 132 NONAME ; void SmfProvider::applicationUrl(class QUrl &)
	?applicationUrl@SmfProvider@@QBE?AVQUrl@@XZ @ 133 NONAME ; class QUrl SmfProvider::applicationUrl(void) const
	?artists@SmfAlbum@@QBE?AVSmfArtists@@XZ @ 134 NONAME ; class SmfArtists SmfAlbum::artists(void) const
	?artists@SmfEvent@@QBE?AVSmfArtists@@XZ @ 135 NONAME ; class SmfArtists SmfEvent::artists(void) const
	?artists@SmfTrackInfo@@QBE?AVSmfArtists@@XZ @ 136 NONAME ; class SmfArtists SmfTrackInfo::artists(void) const
	?city@SmfLocation@@QBE?AVQString@@XZ @ 137 NONAME ; class QString SmfLocation::city(void) const
	?comments@SmfPicture@@QBE?AV?$QList@VSmfComment@@@@XZ @ 138 NONAME ; class QList<class SmfComment> SmfPicture::comments(void) const
	?comments@SmfTrackInfo@@QBE?AV?$QList@VSmfComment@@@@XZ @ 139 NONAME ; class QList<class SmfComment> SmfTrackInfo::comments(void) const
	?convert@SmfContact@@QBEXAAVQContact@QtMobility@@@Z @ 140 NONAME ; void SmfContact::convert(class QtMobility::QContact &) const
	?country@SmfLocation@@QBE?AVQString@@XZ @ 141 NONAME ; class QString SmfLocation::country(void) const
	?createParameterString@SmfPluginUtil@@QAE?AVQByteArray@@ABVQString@@W4Operation@QNetworkAccessManager@@ABV2@2W4SmfSignatureMethod@@ABV?$QMultiMap@VQByteArray@@V1@@@W4SmfParsingMode@@@Z @ 142 NONAME ; class QByteArray SmfPluginUtil::createParameterString(class QString const &, enum QNetworkAccessManager::Operation, class QByteArray const &, class QByteArray const &, enum SmfSignatureMethod, class QMultiMap<class QByteArray, class QByteArray> const &, enum SmfParsingMode)
	?creationDate@SmfPlaylist@@QBE?AVQDateTime@@XZ @ 143 NONAME ; class QDateTime SmfPlaylist::creationDate(void) const
	?customDataAvailable@SmfContactFetcher@@IAEXHPAVQByteArray@@@Z @ 144 NONAME ; void SmfContactFetcher::customDataAvailable(int, class QByteArray *)
	?customDataAvailable@SmfGallery@@IAEXHPAVQByteArray@@@Z @ 145 NONAME ; void SmfGallery::customDataAvailable(int, class QByteArray *)
	?customDataAvailable@SmfPostProvider@@IAEXHPAVQByteArray@@@Z @ 146 NONAME ; void SmfPostProvider::customDataAvailable(int, class QByteArray *)
	?customRequest@SmfContactFetcher@@QAEXABHPAVQByteArray@@@Z @ 147 NONAME ; void SmfContactFetcher::customRequest(int const &, class QByteArray *)
	?customRequest@SmfGallery@@QAEXABHPAVQByteArray@@@Z @ 148 NONAME ; void SmfGallery::customRequest(int const &, class QByteArray *)
	?customRequest@SmfPostProvider@@QAEXABHPAVQByteArray@@@Z @ 149 NONAME ; void SmfPostProvider::customRequest(int const &, class QByteArray *)
	?description@SmfGallery@@QAE?AVQString@@AAVSmfPicture@@@Z @ 150 NONAME ; class QString SmfGallery::description(class SmfPicture &)
	?description@SmfPicture@@QBE?AVQString@@XZ @ 151 NONAME ; class QString SmfPicture::description(void) const
	?description@SmfPost@@QBE?AVQString@@XZ @ 152 NONAME ; class QString SmfPost::description(void) const
	?description@SmfProvider@@QAEXAAVQString@@@Z @ 153 NONAME ; void SmfProvider::description(class QString &)
	?description@SmfProvider@@QBE?AVQString@@XZ @ 154 NONAME ; class QString SmfProvider::description(void) const
	?duration@SmfEvent@@QBE?AVQTime@@XZ @ 155 NONAME ; class QTime SmfEvent::duration(void) const
	?duration@SmfSubtitle@@QBENXZ @ 156 NONAME ; double SmfSubtitle::duration(void) const
	?duration@SmfTrackInfo@@QBE?AVQTime@@XZ @ 157 NONAME ; class QTime SmfTrackInfo::duration(void) const
	?eventDateTime@SmfEvent@@QBE?AVQDateTime@@XZ @ 158 NONAME ; class QDateTime SmfEvent::eventDateTime(void) const
	?followers@SmfContactFetcher@@QAE_NHH@Z @ 159 NONAME ; bool SmfContactFetcher::followers(int, int)
	?followersListAvailable@SmfContactFetcher@@IAEXPAV?$QList@VSmfContact@@@@W4SmfError@@USmfResultPage@@@Z @ 160 NONAME ; void SmfContactFetcher::followersListAvailable(class QList<class SmfContact> *, enum SmfError, struct SmfResultPage)
	?frameRate@SmfSubtitle@@QBENXZ @ 161 NONAME ; double SmfSubtitle::frameRate(void) const
	?friends@SmfContactFetcher@@QAE_NHH@Z @ 162 NONAME ; bool SmfContactFetcher::friends(int, int)
	?friendsListAvailable@SmfContactFetcher@@IAEXPAV?$QList@VSmfContact@@@@W4SmfError@@USmfResultPage@@@Z @ 163 NONAME ; void SmfContactFetcher::friendsListAvailable(class QList<class SmfContact> *, enum SmfError, struct SmfResultPage)
	?genre@SmfTrackInfo@@QBE?AVQString@@XZ @ 164 NONAME ; class QString SmfTrackInfo::genre(void) const
	?geoPositionInfo@SmfLocation@@QBE?AVQGeoPositionInfo@QtMobility@@XZ @ 165 NONAME ; class QtMobility::QGeoPositionInfo SmfLocation::geoPositionInfo(void) const
	?getAuthKeys@SmfPluginUtil@@QAEXAAV?$QMap@VQString@@V1@@@VQString@@1@Z @ 166 NONAME ; void SmfPluginUtil::getAuthKeys(class QMap<class QString, class QString> &, class QString, class QString)
	?getInstance@SmfPluginUtil@@SAPAV1@XZ @ 167 NONAME ; class SmfPluginUtil * SmfPluginUtil::getInstance(void)
	?getJsonHandle@SmfPluginUtil@@QAEPAVParser@QJson@@XZ @ 168 NONAME ; class QJson::Parser * SmfPluginUtil::getJsonHandle(void)
	?getNonce@SmfPluginUtil@@QAEXAAVQString@@@Z @ 169 NONAME ; void SmfPluginUtil::getNonce(class QString &)
	?getProvider@SmfContactFetcher@@QAEPAVSmfProvider@@XZ @ 170 NONAME ; class SmfProvider * SmfContactFetcher::getProvider(void)
	?getProvider@SmfGallery@@QAEPAVSmfProvider@@XZ @ 171 NONAME ; class SmfProvider * SmfGallery::getProvider(void)
	?getProvider@SmfPostProvider@@QBEPAVSmfProvider@@XZ @ 172 NONAME ; class SmfProvider * SmfPostProvider::getProvider(void) const
	?getStaticMetaObject@SmfContactFetcher@@SAABUQMetaObject@@XZ @ 173 NONAME ; struct QMetaObject const & SmfContactFetcher::getStaticMetaObject(void)
	?getStaticMetaObject@SmfGallery@@SAABUQMetaObject@@XZ @ 174 NONAME ; struct QMetaObject const & SmfGallery::getStaticMetaObject(void)
	?getStaticMetaObject@SmfPostProvider@@SAABUQMetaObject@@XZ @ 175 NONAME ; struct QMetaObject const & SmfPostProvider::getStaticMetaObject(void)
	?groupListAvailable@SmfContactFetcher@@IAEXPAV?$QList@VSmfGroup@@@@W4SmfError@@USmfResultPage@@@Z @ 176 NONAME ; void SmfContactFetcher::groupListAvailable(class QList<class SmfGroup> *, enum SmfError, struct SmfResultPage)
	?groups@SmfContactFetcher@@QAE_NHH@Z @ 177 NONAME ; bool SmfContactFetcher::groups(int, int)
	?id@SmfAlbum@@QBE?AVQString@@XZ @ 178 NONAME ; class QString SmfAlbum::id(void) const
	?id@SmfComment@@QBE?AVQString@@XZ @ 179 NONAME ; class QString SmfComment::id(void) const
	?id@SmfEvent@@QBE?AVQString@@XZ @ 180 NONAME ; class QString SmfEvent::id(void) const
	?id@SmfGroup@@QBE?AVQString@@XZ @ 181 NONAME ; class QString SmfGroup::id(void) const
	?id@SmfLocation@@QBE?AVQString@@XZ @ 182 NONAME ; class QString SmfLocation::id(void) const
	?id@SmfLyrics@@QBE?AVQString@@XZ @ 183 NONAME ; class QString SmfLyrics::id(void) const
	?id@SmfMusicProfile@@QBE?AVQString@@XZ @ 184 NONAME ; class QString SmfMusicProfile::id(void) const
	?id@SmfPicture@@QBE?AVQString@@XZ @ 185 NONAME ; class QString SmfPicture::id(void) const
	?id@SmfPlaylist@@QBE?AVQString@@XZ @ 186 NONAME ; class QString SmfPlaylist::id(void) const
	?id@SmfPost@@QBE?AVQString@@XZ @ 187 NONAME ; class QString SmfPost::id(void) const
	?id@SmfSubtitle@@QBE?AVQString@@XZ @ 188 NONAME ; class QString SmfSubtitle::id(void) const
	?id@SmfTrackInfo@@QBE?AVQString@@XZ @ 189 NONAME ; class QString SmfTrackInfo::id(void) const
	?image@SmfAlbum@@QBE?AVQImage@@XZ @ 190 NONAME ; class QImage SmfAlbum::image(void) const
	?image@SmfArtists@@QBE?AVQImage@@XZ @ 191 NONAME ; class QImage SmfArtists::image(void) const
	?image@SmfPost@@QBE?AVQImage@@XZ @ 192 NONAME ; class QImage SmfPost::image(void) const
	?interestInfo@SmfMusicProfile@@QBE?AV?$QList@VSmfTrackInfo@@@@XZ @ 193 NONAME ; class QList<class SmfTrackInfo> SmfMusicProfile::interestInfo(void) const
	?language@SmfLyrics@@QBE?AVQString@@XZ @ 194 NONAME ; class QString SmfLyrics::language(void) const
	?language@SmfSubtitle@@QBE?AVQString@@XZ @ 195 NONAME ; class QString SmfSubtitle::language(void) const
	?lyrics@SmfLyrics@@QBE?AVQByteArray@@XZ @ 196 NONAME ; class QByteArray SmfLyrics::lyrics(void) const
	?maxCharsInPost@SmfPostProvider@@QBEHXZ @ 197 NONAME ; int SmfPostProvider::maxCharsInPost(void) const
	?maxItems@SmfPostProvider@@QBEHXZ @ 198 NONAME ; int SmfPostProvider::maxItems(void) const
	?maxRating@SmfMusicRating@@QBEHXZ @ 199 NONAME ; int SmfMusicRating::maxRating(void) const
	?members@SmfGroup@@QBE?AV?$QList@VSmfContact@@@@XZ @ 200 NONAME ; class QList<class SmfContact> SmfGroup::members(void) const
	?metaObject@SmfContactFetcher@@UBEPBUQMetaObject@@XZ @ 201 NONAME ; struct QMetaObject const * SmfContactFetcher::metaObject(void) const
	?metaObject@SmfGallery@@UBEPBUQMetaObject@@XZ @ 202 NONAME ; struct QMetaObject const * SmfGallery::metaObject(void) const
	?metaObject@SmfPostProvider@@UBEPBUQMetaObject@@XZ @ 203 NONAME ; struct QMetaObject const * SmfPostProvider::metaObject(void) const
	?minRating@SmfMusicRating@@QBEHXZ @ 204 NONAME ; int SmfMusicRating::minRating(void) const
	?musicFingerPrint@SmfMusicFingerPrint@@QBE?AVQByteArray@@XZ @ 205 NONAME ; class QByteArray SmfMusicFingerPrint::musicFingerPrint(void) const
	?musicUsageInfo@SmfMusicProfile@@QBE?AV?$QList@VSmfTrackInfo@@@@XZ @ 206 NONAME ; class QList<class SmfTrackInfo> SmfMusicProfile::musicUsageInfo(void) const
	?name@SmfAlbum@@QBE?AVQString@@XZ @ 207 NONAME ; class QString SmfAlbum::name(void) const
	?name@SmfGroup@@QBE?AVQString@@XZ @ 208 NONAME ; class QString SmfGroup::name(void) const
	?name@SmfLocation@@QBE?AVQString@@XZ @ 209 NONAME ; class QString SmfLocation::name(void) const
	?names@SmfArtists@@QBE?AVQStringList@@XZ @ 210 NONAME ; class QStringList SmfArtists::names(void) const
	?owner@SmfPicture@@QBE?AVQString@@XZ @ 211 NONAME ; class QString SmfPicture::owner(void) const
	?picture@SmfPicture@@QBE?AVQImage@@XZ @ 212 NONAME ; class QImage SmfPicture::picture(void) const
	?pictures@SmfGallery@@QAEXHH@Z @ 213 NONAME ; void SmfGallery::pictures(int, int)
	?picturesAvailable@SmfGallery@@IAEXPAV?$QList@VSmfPicture@@@@W4SmfError@@USmfResultPage@@@Z @ 214 NONAME ; void SmfGallery::picturesAvailable(class QList<class SmfPicture> *, enum SmfError, struct SmfResultPage)
	?playListTitle@SmfPlaylist@@QBE?AVQString@@XZ @ 215 NONAME ; class QString SmfPlaylist::playListTitle(void) const
	?post@SmfPostProvider@@QAEXAAVSmfPost@@AAVSmfLocation@@@Z @ 216 NONAME ; void SmfPostProvider::post(class SmfPost &, class SmfLocation &)
	?postAppearence@SmfPostProvider@@QAE_NW4SmfAppearenceInfo@@@Z @ 217 NONAME ; bool SmfPostProvider::postAppearence(enum SmfAppearenceInfo)
	?postComment@SmfGallery@@QAEXVSmfPicture@@VSmfComment@@@Z @ 218 NONAME ; void SmfGallery::postComment(class SmfPicture, class SmfComment)
	?postDirected@SmfPostProvider@@QAEXAAVSmfPost@@AAVSmfContact@@PAVSmfLocation@@@Z @ 219 NONAME ; void SmfPostProvider::postDirected(class SmfPost &, class SmfContact &, class SmfLocation *)
	?postFinished@SmfPostProvider@@IAEX_N@Z @ 220 NONAME ; void SmfPostProvider::postFinished(bool)
	?postedDate@SmfPicture@@QBE?AVQDateTime@@XZ @ 221 NONAME ; class QDateTime SmfPicture::postedDate(void) const
	?posts@SmfPostProvider@@QAEXPAVSmfContact@@HH@Z @ 222 NONAME ; void SmfPostProvider::posts(class SmfContact *, int, int)
	?postsAvailable@SmfPostProvider@@IAEXPAV?$QList@VSmfPost@@@@W4SmfError@@USmfResultPage@@@Z @ 223 NONAME ; void SmfPostProvider::postsAvailable(class QList<class SmfPost> *, enum SmfError, struct SmfResultPage)
	?qt_metacall@SmfContactFetcher@@UAEHW4Call@QMetaObject@@HPAPAX@Z @ 224 NONAME ; int SmfContactFetcher::qt_metacall(enum QMetaObject::Call, int, void * *)
	?qt_metacall@SmfGallery@@UAEHW4Call@QMetaObject@@HPAPAX@Z @ 225 NONAME ; int SmfGallery::qt_metacall(enum QMetaObject::Call, int, void * *)
	?qt_metacall@SmfPostProvider@@UAEHW4Call@QMetaObject@@HPAPAX@Z @ 226 NONAME ; int SmfPostProvider::qt_metacall(enum QMetaObject::Call, int, void * *)
	?qt_metacast@SmfContactFetcher@@UAEPAXPBD@Z @ 227 NONAME ; void * SmfContactFetcher::qt_metacast(char const *)
	?qt_metacast@SmfGallery@@UAEPAXPBD@Z @ 228 NONAME ; void * SmfGallery::qt_metacast(char const *)
	?qt_metacast@SmfPostProvider@@UAEPAXPBD@Z @ 229 NONAME ; void * SmfPostProvider::qt_metacast(char const *)
	?rating@SmfMusicRating@@QBEHXZ @ 230 NONAME ; int SmfMusicRating::rating(void) const
	?rating@SmfTrackInfo@@QBE?AVSmfMusicRating@@XZ @ 231 NONAME ; class SmfMusicRating SmfTrackInfo::rating(void) const
	?releaseYear@SmfLyrics@@QBE?AVQDateTime@@XZ @ 232 NONAME ; class QDateTime SmfLyrics::releaseYear(void) const
	?releaseYear@SmfSubtitle@@QBE?AVQDateTime@@XZ @ 233 NONAME ; class QDateTime SmfSubtitle::releaseYear(void) const
	?search@SmfContactFetcher@@QAEXPAVSmfContact@@HH@Z @ 234 NONAME ; void SmfContactFetcher::search(class SmfContact *, int, int)
	?searchContactFinished@SmfContactFetcher@@IAEXPAV?$QList@VSmfContact@@@@W4SmfError@@USmfResultPage@@@Z @ 235 NONAME ; void SmfContactFetcher::searchContactFinished(class QList<class SmfContact> *, enum SmfError, struct SmfResultPage)
	?searchInGroup@SmfContactFetcher@@QAE_NVSmfGroup@@HH@Z @ 236 NONAME ; bool SmfContactFetcher::searchInGroup(class SmfGroup, int, int)
	?searchInGroupFinished@SmfContactFetcher@@IAEXPAV?$QList@VSmfContact@@@@W4SmfError@@USmfResultPage@@@Z @ 237 NONAME ; void SmfContactFetcher::searchInGroupFinished(class QList<class SmfContact> *, enum SmfError, struct SmfResultPage)
	?searchNear@SmfContactFetcher@@QAE_NPAVSmfLocation@@W4SmfLocationSearchBoundary@@HH@Z @ 238 NONAME ; bool SmfContactFetcher::searchNear(class SmfLocation *, enum SmfLocationSearchBoundary, int, int)
	?searchNearFinished@SmfContactFetcher@@IAEXPAV?$QList@VSmfContact@@@@W4SmfError@@USmfResultPage@@@Z @ 239 NONAME ; void SmfContactFetcher::searchNearFinished(class QList<class SmfContact> *, enum SmfError, struct SmfResultPage)
	?serviceIcon@SmfProvider@@QAEXAAVQImage@@@Z @ 240 NONAME ; void SmfProvider::serviceIcon(class QImage &)
	?serviceIcon@SmfProvider@@QBE?AVQImage@@XZ @ 241 NONAME ; class QImage SmfProvider::serviceIcon(void) const
	?serviceName@SmfProvider@@QAEXAAVQString@@@Z @ 242 NONAME ; void SmfProvider::serviceName(class QString &)
	?serviceName@SmfProvider@@QBE?AVQString@@XZ @ 243 NONAME ; class QString SmfProvider::serviceName(void) const
	?serviceTypes@SmfProvider@@QAEXAAVQStringList@@@Z @ 244 NONAME ; void SmfProvider::serviceTypes(class QStringList &)
	?serviceTypes@SmfProvider@@QBE?AV?$QList@VQString@@@@XZ @ 245 NONAME ; class QList<class QString> SmfProvider::serviceTypes(void) const
	?serviceUrl@SmfProvider@@QAEXAAVQUrl@@@Z @ 246 NONAME ; void SmfProvider::serviceUrl(class QUrl &)
	?serviceUrl@SmfProvider@@QBE?AVQUrl@@XZ @ 247 NONAME ; class QUrl SmfProvider::serviceUrl(void) const
	?setAlbum@SmfTrackInfo@@QAEXABVSmfAlbum@@@Z @ 248 NONAME ; void SmfTrackInfo::setAlbum(class SmfAlbum const &)
	?setArtists@SmfAlbum@@QAEXABVSmfArtists@@@Z @ 249 NONAME ; void SmfAlbum::setArtists(class SmfArtists const &)
	?setArtists@SmfEvent@@QAEXABVSmfArtists@@@Z @ 250 NONAME ; void SmfEvent::setArtists(class SmfArtists const &)
	?setArtists@SmfTrackInfo@@QAEXABVSmfArtists@@@Z @ 251 NONAME ; void SmfTrackInfo::setArtists(class SmfArtists const &)
	?setCity@SmfLocation@@QAEXABVQString@@@Z @ 252 NONAME ; void SmfLocation::setCity(class QString const &)
	?setComment@SmfTrackInfo@@QAEXABV?$QList@VSmfComment@@@@@Z @ 253 NONAME ; void SmfTrackInfo::setComment(class QList<class SmfComment> const &)
	?setCountry@SmfLocation@@QAEXABVQString@@@Z @ 254 NONAME ; void SmfLocation::setCountry(class QString const &)
	?setCreationDate@SmfPlaylist@@QAEXABVQDateTime@@@Z @ 255 NONAME ; void SmfPlaylist::setCreationDate(class QDateTime const &)
	?setDescription@SmfPicture@@QAEXABVQString@@@Z @ 256 NONAME ; void SmfPicture::setDescription(class QString const &)
	?setDescription@SmfPost@@QAEXABVQString@@@Z @ 257 NONAME ; void SmfPost::setDescription(class QString const &)
	?setDuration@SmfEvent@@QAEXABVQTime@@@Z @ 258 NONAME ; void SmfEvent::setDuration(class QTime const &)
	?setDuration@SmfSubtitle@@QAEXABN@Z @ 259 NONAME ; void SmfSubtitle::setDuration(double const &)
	?setDuration@SmfTrackInfo@@QAEXABVQTime@@@Z @ 260 NONAME ; void SmfTrackInfo::setDuration(class QTime const &)
	?setEventDateTime@SmfEvent@@QAEXABVQDateTime@@@Z @ 261 NONAME ; void SmfEvent::setEventDateTime(class QDateTime const &)
	?setFrameRate@SmfSubtitle@@QAEXABN@Z @ 262 NONAME ; void SmfSubtitle::setFrameRate(double const &)
	?setGenre@SmfTrackInfo@@QAEXABVQString@@@Z @ 263 NONAME ; void SmfTrackInfo::setGenre(class QString const &)
	?setGeoPositionInfo@SmfLocation@@QAEXABVQGeoPositionInfo@QtMobility@@@Z @ 264 NONAME ; void SmfLocation::setGeoPositionInfo(class QtMobility::QGeoPositionInfo const &)
	?setId@SmfAlbum@@QAEXABVQString@@@Z @ 265 NONAME ; void SmfAlbum::setId(class QString const &)
	?setId@SmfComment@@QAEXABVQString@@@Z @ 266 NONAME ; void SmfComment::setId(class QString const &)
	?setId@SmfEvent@@QAEXABVQString@@@Z @ 267 NONAME ; void SmfEvent::setId(class QString const &)
	?setId@SmfGroup@@QAEXAAVQString@@@Z @ 268 NONAME ; void SmfGroup::setId(class QString &)
	?setId@SmfLocation@@QAEXABVQString@@@Z @ 269 NONAME ; void SmfLocation::setId(class QString const &)
	?setId@SmfLyrics@@QAEXABVQString@@@Z @ 270 NONAME ; void SmfLyrics::setId(class QString const &)
	?setId@SmfMusicProfile@@QAEXABVQString@@@Z @ 271 NONAME ; void SmfMusicProfile::setId(class QString const &)
	?setId@SmfPicture@@QAEXABVQString@@@Z @ 272 NONAME ; void SmfPicture::setId(class QString const &)
	?setId@SmfPlaylist@@QAEXABVQString@@@Z @ 273 NONAME ; void SmfPlaylist::setId(class QString const &)
	?setId@SmfPost@@QAEXVQString@@@Z @ 274 NONAME ; void SmfPost::setId(class QString)
	?setId@SmfSubtitle@@QAEXABVQString@@@Z @ 275 NONAME ; void SmfSubtitle::setId(class QString const &)
	?setId@SmfTrackInfo@@QAEXABVQString@@@Z @ 276 NONAME ; void SmfTrackInfo::setId(class QString const &)
	?setImage@SmfAlbum@@QAEXABVQImage@@@Z @ 277 NONAME ; void SmfAlbum::setImage(class QImage const &)
	?setImage@SmfArtists@@QAEXABVQImage@@@Z @ 278 NONAME ; void SmfArtists::setImage(class QImage const &)
	?setImage@SmfPost@@QAEXABVQImage@@@Z @ 279 NONAME ; void SmfPost::setImage(class QImage const &)
	?setInterestInfo@SmfMusicProfile@@QAEXABV?$QList@VSmfTrackInfo@@@@@Z @ 280 NONAME ; void SmfMusicProfile::setInterestInfo(class QList<class SmfTrackInfo> const &)
	?setLanguage@SmfLyrics@@QAEXABVQString@@@Z @ 281 NONAME ; void SmfLyrics::setLanguage(class QString const &)
	?setLanguage@SmfSubtitle@@QAEXABVQString@@@Z @ 282 NONAME ; void SmfSubtitle::setLanguage(class QString const &)
	?setLyrics@SmfLyrics@@QAEXABVQByteArray@@@Z @ 283 NONAME ; void SmfLyrics::setLyrics(class QByteArray const &)
	?setMaxRating@SmfMusicRating@@QAEXABH@Z @ 284 NONAME ; void SmfMusicRating::setMaxRating(int const &)
	?setMembers@SmfGroup@@QAEXPAV?$QList@VSmfContact@@@@@Z @ 285 NONAME ; void SmfGroup::setMembers(class QList<class SmfContact> *)
	?setMinRating@SmfMusicRating@@QAEXABH@Z @ 286 NONAME ; void SmfMusicRating::setMinRating(int const &)
	?setMusicFingerPrint@SmfMusicFingerPrint@@QAEXABVQByteArray@@@Z @ 287 NONAME ; void SmfMusicFingerPrint::setMusicFingerPrint(class QByteArray const &)
	?setMusicUsageInfo@SmfMusicProfile@@QAEXABV?$QList@VSmfTrackInfo@@@@@Z @ 288 NONAME ; void SmfMusicProfile::setMusicUsageInfo(class QList<class SmfTrackInfo> const &)
	?setName@SmfAlbum@@QAEXABVQString@@@Z @ 289 NONAME ; void SmfAlbum::setName(class QString const &)
	?setName@SmfGroup@@QAEXAAVQString@@@Z @ 290 NONAME ; void SmfGroup::setName(class QString &)
	?setName@SmfLocation@@QAEXABVQString@@@Z @ 291 NONAME ; void SmfLocation::setName(class QString const &)
	?setNames@SmfArtists@@QAEXABVQStringList@@@Z @ 292 NONAME ; void SmfArtists::setNames(class QStringList const &)
	?setOwner@SmfPicture@@QAEXABVQString@@@Z @ 293 NONAME ; void SmfPicture::setOwner(class QString const &)
	?setPicture@SmfPicture@@QAEXABVQImage@@@Z @ 294 NONAME ; void SmfPicture::setPicture(class QImage const &)
	?setPlayListTitle@SmfPlaylist@@QAEXABVQString@@@Z @ 295 NONAME ; void SmfPlaylist::setPlayListTitle(class QString const &)
	?setPostedDate@SmfPicture@@QAEXABVQDateTime@@@Z @ 296 NONAME ; void SmfPicture::setPostedDate(class QDateTime const &)
	?setRating@SmfMusicRating@@QAEXABH@Z @ 297 NONAME ; void SmfMusicRating::setRating(int const &)
	?setRating@SmfTrackInfo@@QAEXABVSmfMusicRating@@@Z @ 298 NONAME ; void SmfTrackInfo::setRating(class SmfMusicRating const &)
	?setReleaseYear@SmfLyrics@@QAEXABVQDateTime@@@Z @ 299 NONAME ; void SmfLyrics::setReleaseYear(class QDateTime const &)
	?setReleaseYear@SmfSubtitle@@QAEXABVQDateTime@@@Z @ 300 NONAME ; void SmfSubtitle::setReleaseYear(class QDateTime const &)
	?setStreet@SmfLocation@@QAEXABVQString@@@Z @ 301 NONAME ; void SmfLocation::setStreet(class QString const &)
	?setSubtitle@SmfSubtitle@@QAEXABVQByteArray@@@Z @ 302 NONAME ; void SmfSubtitle::setSubtitle(class QByteArray const &)
	?setTags@SmfTrackInfo@@QAEXABVQStringList@@@Z @ 303 NONAME ; void SmfTrackInfo::setTags(class QStringList const &)
	?setText@SmfComment@@QAEXABVQString@@@Z @ 304 NONAME ; void SmfComment::setText(class QString const &)
	?setTicketUrl@SmfEvent@@QAEXABVQUrl@@@Z @ 305 NONAME ; void SmfEvent::setTicketUrl(class QUrl const &)
	?setTimeStamp@SmfComment@@QAEXABVQDateTime@@@Z @ 306 NONAME ; void SmfComment::setTimeStamp(class QDateTime const &)
	?setTitle@SmfEvent@@QAEXABVQString@@@Z @ 307 NONAME ; void SmfEvent::setTitle(class QString const &)
	?setTitle@SmfPicture@@QAEXABVQString@@@Z @ 308 NONAME ; void SmfPicture::setTitle(class QString const &)
	?setTitle@SmfPost@@QAEXABVQString@@@Z @ 309 NONAME ; void SmfPost::setTitle(class QString const &)
	?setTitle@SmfTrackInfo@@QAEXABVQString@@@Z @ 310 NONAME ; void SmfTrackInfo::setTitle(class QString const &)
	?setTrackList@SmfPlaylist@@QAEXABV?$QList@VSmfTrackInfo@@@@@Z @ 311 NONAME ; void SmfPlaylist::setTrackList(class QList<class SmfTrackInfo> const &)
	?setUrl@SmfArtists@@QAEXABVQUrl@@@Z @ 312 NONAME ; void SmfArtists::setUrl(class QUrl const &)
	?setUrl@SmfLocation@@QAEXABVQUrl@@@Z @ 313 NONAME ; void SmfLocation::setUrl(class QUrl const &)
	?setUrl@SmfPicture@@QAEXABVQUrl@@@Z @ 314 NONAME ; void SmfPicture::setUrl(class QUrl const &)
	?setUrl@SmfPost@@QAEXAAVQUrl@@@Z @ 315 NONAME ; void SmfPost::setUrl(class QUrl &)
	?setUserEvents@SmfMusicProfile@@QAEXABV?$QList@VSmfEvent@@@@@Z @ 316 NONAME ; void SmfMusicProfile::setUserEvents(class QList<class SmfEvent> const &)
	?setValue@SmfContact@@QAEXABVQString@@AAVQVariant@@@Z @ 317 NONAME ; void SmfContact::setValue(class QString const &, class QVariant &)
	?setVenue@SmfEvent@@QAEXABVSmfLocation@@@Z @ 318 NONAME ; void SmfEvent::setVenue(class SmfLocation const &)
	?setVisibility@SmfPicture@@QAEXABW4SmfPictureVisibility@@@Z @ 319 NONAME ; void SmfPicture::setVisibility(enum SmfPictureVisibility const &)
	?setYear@SmfTrackInfo@@QAEXABVQDateTime@@@Z @ 320 NONAME ; void SmfTrackInfo::setYear(class QDateTime const &)
	?setZipCode@SmfLocation@@QAEXABVQString@@@Z @ 321 NONAME ; void SmfLocation::setZipCode(class QString const &)
	?sharePost@SmfPostProvider@@QAEXAAVSmfPost@@AAVSmfContact@@_N@Z @ 322 NONAME ; void SmfPostProvider::sharePost(class SmfPost &, class SmfContact &, bool)
	?street@SmfLocation@@QBE?AVQString@@XZ @ 323 NONAME ; class QString SmfLocation::street(void) const
	?subTypes@SmfContact@@QBE?AVQStringList@@XZ @ 324 NONAME ; class QStringList SmfContact::subTypes(void) const
	?subtitle@SmfSubtitle@@QBE?AVQByteArray@@XZ @ 325 NONAME ; class QByteArray SmfSubtitle::subtitle(void) const
	?supportedFormats@SmfPostProvider@@QBE?AV?$QVector@VQTextFormat@@@@XZ @ 326 NONAME ; class QVector<class QTextFormat> SmfPostProvider::supportedFormats(void) const
	?supportsAppearence@SmfPostProvider@@QBE_NXZ @ 327 NONAME ; bool SmfPostProvider::supportsAppearence(void) const
	?tags@SmfPicture@@QBE?AVQStringList@@XZ @ 328 NONAME ; class QStringList SmfPicture::tags(void) const
	?tags@SmfTrackInfo@@QBE?AVQStringList@@XZ @ 329 NONAME ; class QStringList SmfTrackInfo::tags(void) const
	?text@SmfComment@@QBE?AVQString@@XZ @ 330 NONAME ; class QString SmfComment::text(void) const
	?ticketUrl@SmfEvent@@QBE?AVQUrl@@XZ @ 331 NONAME ; class QUrl SmfEvent::ticketUrl(void) const
	?timeStamp@SmfComment@@QBE?AVQDateTime@@XZ @ 332 NONAME ; class QDateTime SmfComment::timeStamp(void) const
	?title@SmfEvent@@QBE?AVQString@@XZ @ 333 NONAME ; class QString SmfEvent::title(void) const
	?title@SmfPicture@@QBE?AVQString@@XZ @ 334 NONAME ; class QString SmfPicture::title(void) const
	?title@SmfPost@@QBE?AVQString@@XZ @ 335 NONAME ; class QString SmfPost::title(void) const
	?title@SmfTrackInfo@@QBE?AVQString@@XZ @ 336 NONAME ; class QString SmfTrackInfo::title(void) const
	?tr@SmfContactFetcher@@SA?AVQString@@PBD0@Z @ 337 NONAME ; class QString SmfContactFetcher::tr(char const *, char const *)
	?tr@SmfContactFetcher@@SA?AVQString@@PBD0H@Z @ 338 NONAME ; class QString SmfContactFetcher::tr(char const *, char const *, int)
	?tr@SmfGallery@@SA?AVQString@@PBD0@Z @ 339 NONAME ; class QString SmfGallery::tr(char const *, char const *)
	?tr@SmfGallery@@SA?AVQString@@PBD0H@Z @ 340 NONAME ; class QString SmfGallery::tr(char const *, char const *, int)
	?tr@SmfPostProvider@@SA?AVQString@@PBD0@Z @ 341 NONAME ; class QString SmfPostProvider::tr(char const *, char const *)
	?tr@SmfPostProvider@@SA?AVQString@@PBD0H@Z @ 342 NONAME ; class QString SmfPostProvider::tr(char const *, char const *, int)
	?trUtf8@SmfContactFetcher@@SA?AVQString@@PBD0@Z @ 343 NONAME ; class QString SmfContactFetcher::trUtf8(char const *, char const *)
	?trUtf8@SmfContactFetcher@@SA?AVQString@@PBD0H@Z @ 344 NONAME ; class QString SmfContactFetcher::trUtf8(char const *, char const *, int)
	?trUtf8@SmfGallery@@SA?AVQString@@PBD0@Z @ 345 NONAME ; class QString SmfGallery::trUtf8(char const *, char const *)
	?trUtf8@SmfGallery@@SA?AVQString@@PBD0H@Z @ 346 NONAME ; class QString SmfGallery::trUtf8(char const *, char const *, int)
	?trUtf8@SmfPostProvider@@SA?AVQString@@PBD0@Z @ 347 NONAME ; class QString SmfPostProvider::trUtf8(char const *, char const *)
	?trUtf8@SmfPostProvider@@SA?AVQString@@PBD0H@Z @ 348 NONAME ; class QString SmfPostProvider::trUtf8(char const *, char const *, int)
	?trackList@SmfPlaylist@@QBE?AV?$QList@VSmfTrackInfo@@@@XZ @ 349 NONAME ; class QList<class SmfTrackInfo> SmfPlaylist::trackList(void) const
	?updatePost@SmfPostProvider@@QAEXAAVSmfPost@@@Z @ 350 NONAME ; void SmfPostProvider::updatePost(class SmfPost &)
	?upload@SmfGallery@@QAEXPAV?$QList@VSmfPicture@@@@@Z @ 351 NONAME ; void SmfGallery::upload(class QList<class SmfPicture> *)
	?upload@SmfGallery@@QAEXPAVSmfPicture@@@Z @ 352 NONAME ; void SmfGallery::upload(class SmfPicture *)
	?uploadFinished@SmfGallery@@IAEXV?$QList@_N@@@Z @ 353 NONAME ; void SmfGallery::uploadFinished(class QList<bool>)
	?url@SmfArtists@@QBE?AVQUrl@@XZ @ 354 NONAME ; class QUrl SmfArtists::url(void) const
	?url@SmfLocation@@QBE?AVQUrl@@XZ @ 355 NONAME ; class QUrl SmfLocation::url(void) const
	?url@SmfPicture@@QBE?AVQUrl@@XZ @ 356 NONAME ; class QUrl SmfPicture::url(void) const
	?url@SmfPost@@QBE?AVQUrl@@XZ @ 357 NONAME ; class QUrl SmfPost::url(void) const
	?userEvents@SmfMusicProfile@@QBE?AV?$QList@VSmfEvent@@@@XZ @ 358 NONAME ; class QList<class SmfEvent> SmfMusicProfile::userEvents(void) const
	?value@SmfContact@@QBE?AVQVariant@@ABVQString@@@Z @ 359 NONAME ; class QVariant SmfContact::value(class QString const &) const
	?venue@SmfEvent@@QBE?AVSmfLocation@@XZ @ 360 NONAME ; class SmfLocation SmfEvent::venue(void) const
	?visibility@SmfPicture@@QBE?AW4SmfPictureVisibility@@XZ @ 361 NONAME ; enum SmfPictureVisibility SmfPicture::visibility(void) const
	?writeLog@SmfClient@@QBEXVQString@@@Z @ 362 NONAME ; void SmfClient::writeLog(class QString) const
	?writeLog@SmfContact@@QBEXVQString@@@Z @ 363 NONAME ; void SmfContact::writeLog(class QString) const
	?year@SmfTrackInfo@@QBE?AVQDateTime@@XZ @ 364 NONAME ; class QDateTime SmfTrackInfo::year(void) const
	?zipCode@SmfLocation@@QBE?AVQString@@XZ @ 365 NONAME ; class QString SmfLocation::zipCode(void) const
	?staticMetaObject@SmfGallery@@2UQMetaObject@@B @ 366 NONAME ; struct QMetaObject const SmfGallery::staticMetaObject
	?staticMetaObject@SmfPostProvider@@2UQMetaObject@@B @ 367 NONAME ; struct QMetaObject const SmfPostProvider::staticMetaObject
	?m_myInstance@SmfPluginUtil@@0PAV1@A @ 368 NONAME ; class SmfPluginUtil * SmfPluginUtil::m_myInstance
	?staticMetaObject@SmfContactFetcher@@2UQMetaObject@@B @ 369 NONAME ; struct QMetaObject const SmfContactFetcher::staticMetaObject

