EXPORTS
	_ZN10SmfArtists5setIdERK7QString @ 1 NONAME
	_ZN10SmfArtists6setUrlERK4QUrl @ 2 NONAME
	_ZN10SmfArtists7setTagsERK11QStringList @ 3 NONAME
	_ZN10SmfArtists8setImageERK6QImage @ 4 NONAME
	_ZN10SmfArtists8setNamesERK11QStringList @ 5 NONAME
	_ZN10SmfArtistsC1ERKS_ @ 6 NONAME
	_ZN10SmfArtistsC1Ev @ 7 NONAME
	_ZN10SmfArtistsC2ERKS_ @ 8 NONAME
	_ZN10SmfArtistsC2Ev @ 9 NONAME
	_ZN10SmfArtistsD1Ev @ 10 NONAME
	_ZN10SmfArtistsD2Ev @ 11 NONAME
	_ZN10SmfArtistsaSERKS_ @ 12 NONAME
	_ZN10SmfComment12setTimeStampERK9QDateTime @ 13 NONAME
	_ZN10SmfComment5setIdERK7QString @ 14 NONAME
	_ZN10SmfComment7setTextERK7QString @ 15 NONAME
	_ZN10SmfCommentC1ERKS_ @ 16 NONAME
	_ZN10SmfCommentC1Ev @ 17 NONAME
	_ZN10SmfCommentC2ERKS_ @ 18 NONAME
	_ZN10SmfCommentC2Ev @ 19 NONAME
	_ZN10SmfCommentD1Ev @ 20 NONAME
	_ZN10SmfCommentD2Ev @ 21 NONAME
	_ZN10SmfCommentaSERKS_ @ 22 NONAME
	_ZN10SmfContact8setValueERK7QStringR8QVariant @ 23 NONAME
	_ZN10SmfContactC1EP7QObject @ 24 NONAME
	_ZN10SmfContactC1ERKS_ @ 25 NONAME
	_ZN10SmfContactC2EP7QObject @ 26 NONAME
	_ZN10SmfContactC2ERKS_ @ 27 NONAME
	_ZN10SmfContactD1Ev @ 28 NONAME
	_ZN10SmfContactD2Ev @ 29 NONAME
	_ZN10SmfContactaSERKS_ @ 30 NONAME
	_ZN10SmfPicture10addCommentERK10SmfComment @ 31 NONAME
	_ZN10SmfPicture10setPictureERK6QImage @ 32 NONAME
	_ZN10SmfPicture12downloadFlagEv @ 33 NONAME
	_ZN10SmfPicture13setPostedDateERK9QDateTime @ 34 NONAME
	_ZN10SmfPicture13setVisibilityERK20SmfPictureVisibility @ 35 NONAME
	_ZN10SmfPicture14setDescriptionERK7QString @ 36 NONAME
	_ZN10SmfPicture5setIdERK7QString @ 37 NONAME
	_ZN10SmfPicture6setUrlERK4QUrl @ 38 NONAME
	_ZN10SmfPicture7addTagsERK11QStringList @ 39 NONAME
	_ZN10SmfPicture8setOwnerERK7QString @ 40 NONAME
	_ZN10SmfPicture8setTitleERK7QString @ 41 NONAME
	_ZN10SmfPictureC1ERK6QImage @ 42 NONAME
	_ZN10SmfPictureC1ERKS_ @ 43 NONAME
	_ZN10SmfPictureC1Ev @ 44 NONAME
	_ZN10SmfPictureC2ERK6QImage @ 45 NONAME
	_ZN10SmfPictureC2ERKS_ @ 46 NONAME
	_ZN10SmfPictureC2Ev @ 47 NONAME
	_ZN10SmfPictureD1Ev @ 48 NONAME
	_ZN10SmfPictureD2Ev @ 49 NONAME
	_ZN10SmfPictureaSERKS_ @ 50 NONAME
	_ZN11SmfLocation10setCountryERK7QString @ 51 NONAME
	_ZN11SmfLocation10setZipCodeERK7QString @ 52 NONAME
	_ZN11SmfLocation18setGeoPositionInfoERKN10QtMobility16QGeoPositionInfoE @ 53 NONAME
	_ZN11SmfLocation5setIdERK7QString @ 54 NONAME
	_ZN11SmfLocation6setUrlERK4QUrl @ 55 NONAME
	_ZN11SmfLocation7setCityERK7QString @ 56 NONAME
	_ZN11SmfLocation7setNameERK7QString @ 57 NONAME
	_ZN11SmfLocation9setStreetERK7QString @ 58 NONAME
	_ZN11SmfLocationC1ERKS_ @ 59 NONAME
	_ZN11SmfLocationC1Ev @ 60 NONAME
	_ZN11SmfLocationC2ERKS_ @ 61 NONAME
	_ZN11SmfLocationC2Ev @ 62 NONAME
	_ZN11SmfLocationD1Ev @ 63 NONAME
	_ZN11SmfLocationD2Ev @ 64 NONAME
	_ZN11SmfLocationaSERKS_ @ 65 NONAME
	_ZN11SmfPlaylist10setLicenseERK4QUrl @ 66 NONAME
	_ZN11SmfPlaylist10setVersionERK7QString @ 67 NONAME
	_ZN11SmfPlaylist11setCommentsERK5QListI10SmfCommentE @ 68 NONAME
	_ZN11SmfPlaylist11setLocationERK4QUrl @ 69 NONAME
	_ZN11SmfPlaylist11setMetadataERK4QMapI7QString8QVariantE @ 70 NONAME
	_ZN11SmfPlaylist12setExtensionERK4QMapI7QString8QVariantE @ 71 NONAME
	_ZN11SmfPlaylist12setTrackListERK5QListI12SmfTrackInfoE @ 72 NONAME
	_ZN11SmfPlaylist14setAttributionERK5QListI4QUrlE @ 73 NONAME
	_ZN11SmfPlaylist15setCreationDateERK9QDateTime @ 74 NONAME
	_ZN11SmfPlaylist16setPlayListTitleERK7QString @ 75 NONAME
	_ZN11SmfPlaylist5setIdERK7QString @ 76 NONAME
	_ZN11SmfPlaylist7setInfoERK4QUrl @ 77 NONAME
	_ZN11SmfPlaylist8setImageERK4QUrl @ 78 NONAME
	_ZN11SmfPlaylist9setAuthorERK7QString @ 79 NONAME
	_ZN11SmfPlaylistC1ERKS_ @ 80 NONAME
	_ZN11SmfPlaylistC1Ev @ 81 NONAME
	_ZN11SmfPlaylistC2ERKS_ @ 82 NONAME
	_ZN11SmfPlaylistC2Ev @ 83 NONAME
	_ZN11SmfPlaylistD1Ev @ 84 NONAME
	_ZN11SmfPlaylistD2Ev @ 85 NONAME
	_ZN11SmfPlaylistaSERKS_ @ 86 NONAME
	_ZN11SmfProvider13setServiceUrlER4QUrl @ 87 NONAME
	_ZN11SmfProvider14setDescriptionER7QString @ 88 NONAME
	_ZN11SmfProvider14setServiceIconER6QImage @ 89 NONAME
	_ZN11SmfProvider14setServiceNameER7QString @ 90 NONAME
	_ZN11SmfProvider17setApplicationUrlER4QUrl @ 91 NONAME
	_ZN11SmfProvider21setSupportedLanguagesER11QStringList @ 92 NONAME
	_ZN11SmfProvider22setAuthenticationAppIdERK7QString @ 93 NONAME
	_ZN11SmfProvider22setSupportedInterfacesER11QStringList @ 94 NONAME
	_ZN11SmfProvider24setAuthenticationAppNameERK7QString @ 95 NONAME
	_ZN11SmfProviderC1Ev @ 96 NONAME
	_ZN11SmfProviderC2Ev @ 97 NONAME
	_ZN11SmfProviderD1Ev @ 98 NONAME
	_ZN11SmfProviderD2Ev @ 99 NONAME
	_ZN11SmfSubtitle11setDurationERKd @ 100 NONAME
	_ZN11SmfSubtitle11setLanguageERK7QString @ 101 NONAME
	_ZN11SmfSubtitle11setSubtitleERK10QByteArray @ 102 NONAME
	_ZN11SmfSubtitle12setFrameRateERKd @ 103 NONAME
	_ZN11SmfSubtitle14setReleaseYearERK9QDateTime @ 104 NONAME
	_ZN11SmfSubtitle14setSubtitleUrlERK4QUrl @ 105 NONAME
	_ZN11SmfSubtitle5setIdERK7QString @ 106 NONAME
	_ZN11SmfSubtitleC1ERKS_ @ 107 NONAME
	_ZN11SmfSubtitleC1Ev @ 108 NONAME
	_ZN11SmfSubtitleC2ERKS_ @ 109 NONAME
	_ZN11SmfSubtitleC2Ev @ 110 NONAME
	_ZN11SmfSubtitleD1Ev @ 111 NONAME
	_ZN11SmfSubtitleD2Ev @ 112 NONAME
	_ZN11SmfSubtitleaSERKS_ @ 113 NONAME
	_ZN12SmfTrackInfo10setArtistsERK10SmfArtists @ 114 NONAME
	_ZN12SmfTrackInfo10setCommentERK5QListI10SmfCommentE @ 115 NONAME
	_ZN12SmfTrackInfo11setDurationERK5QTime @ 116 NONAME
	_ZN12SmfTrackInfo5setIdERK7QString @ 117 NONAME
	_ZN12SmfTrackInfo7setTagsERK11QStringList @ 118 NONAME
	_ZN12SmfTrackInfo7setYearERK9QDateTime @ 119 NONAME
	_ZN12SmfTrackInfo8setAlbumERK8SmfAlbum @ 120 NONAME
	_ZN12SmfTrackInfo8setGenreERK7QString @ 121 NONAME
	_ZN12SmfTrackInfo8setTitleERK7QString @ 122 NONAME
	_ZN12SmfTrackInfo9setRatingERK14SmfMusicRating @ 123 NONAME
	_ZN12SmfTrackInfoC1ERKS_ @ 124 NONAME
	_ZN12SmfTrackInfoC1Ev @ 125 NONAME
	_ZN12SmfTrackInfoC2ERKS_ @ 126 NONAME
	_ZN12SmfTrackInfoC2Ev @ 127 NONAME
	_ZN12SmfTrackInfoD1Ev @ 128 NONAME
	_ZN12SmfTrackInfoD2Ev @ 129 NONAME
	_ZN12SmfTrackInfoaSERKS_ @ 130 NONAME
	_ZN13SmfPluginUtil11getAuthKeysER4QMapI10QByteArrayS1_E7QStringRK9QDateTimeS4_ @ 131 NONAME
	_ZN13SmfPluginUtil21createParameterStringERK7QStringN21QNetworkAccessManager9OperationERK10QByteArrayS7_18SmfSignatureMethodRK9QMultiMapIS5_S5_E14SmfParsingMode @ 132 NONAME
	_ZN13SmfPluginUtil5parseEP9QIODevicePb @ 133 NONAME
	_ZN13SmfPluginUtil5parseERK10QByteArrayPb @ 134 NONAME
	_ZN13SmfPluginUtil8getNonceER7QStringx @ 135 NONAME
	_ZN13SmfPluginUtilC1Ev @ 136 NONAME
	_ZN13SmfPluginUtilC2Ev @ 137 NONAME
	_ZN13SmfPluginUtilD1Ev @ 138 NONAME
	_ZN13SmfPluginUtilD2Ev @ 139 NONAME
	_ZN14SmfMusicRating12setMaxRatingERKi @ 140 NONAME
	_ZN14SmfMusicRating12setMinRatingERKi @ 141 NONAME
	_ZN14SmfMusicRating9setRatingERKi @ 142 NONAME
	_ZN14SmfMusicRatingC1EP12SmfTrackInfo @ 143 NONAME
	_ZN14SmfMusicRatingC1ERKS_ @ 144 NONAME
	_ZN14SmfMusicRatingC2EP12SmfTrackInfo @ 145 NONAME
	_ZN14SmfMusicRatingC2ERKS_ @ 146 NONAME
	_ZN14SmfMusicRatingD1Ev @ 147 NONAME
	_ZN14SmfMusicRatingD2Ev @ 148 NONAME
	_ZN14SmfMusicRatingaSERKS_ @ 149 NONAME
	_ZN15SmfMusicProfile12setFavoritesERK5QListI12SmfTrackInfoE @ 150 NONAME
	_ZN15SmfMusicProfile13setUserEventsERK5QListI8SmfEventE @ 151 NONAME
	_ZN15SmfMusicProfile15setRecentTracksERK5QListI12SmfTrackInfoE @ 152 NONAME
	_ZN15SmfMusicProfile5setIdERK7QString @ 153 NONAME
	_ZN15SmfMusicProfileC1ERKS_ @ 154 NONAME
	_ZN15SmfMusicProfileC1Ev @ 155 NONAME
	_ZN15SmfMusicProfileC2ERKS_ @ 156 NONAME
	_ZN15SmfMusicProfileC2Ev @ 157 NONAME
	_ZN15SmfMusicProfileD1Ev @ 158 NONAME
	_ZN15SmfMusicProfileD2Ev @ 159 NONAME
	_ZN15SmfMusicProfileaSERKS_ @ 160 NONAME
	_ZN15SmfPictureAlbum10addCommentERK10SmfComment @ 161 NONAME
	_ZN15SmfPictureAlbum11addKeywordsERK11QStringList @ 162 NONAME
	_ZN15SmfPictureAlbum12setThumbnailERK6QImage @ 163 NONAME
	_ZN15SmfPictureAlbum13setPostedDateERK9QDateTime @ 164 NONAME
	_ZN15SmfPictureAlbum13setVisibilityERK20SmfPictureVisibility @ 165 NONAME
	_ZN15SmfPictureAlbum14setDescriptionERK7QString @ 166 NONAME
	_ZN15SmfPictureAlbum15setPictureCountEi @ 167 NONAME
	_ZN15SmfPictureAlbum5setIdERK7QString @ 168 NONAME
	_ZN15SmfPictureAlbum6setUrlERK4QUrl @ 169 NONAME
	_ZN15SmfPictureAlbum8setTitleERK7QString @ 170 NONAME
	_ZN15SmfPictureAlbumC1ERKS_ @ 171 NONAME
	_ZN15SmfPictureAlbumC1Ev @ 172 NONAME
	_ZN15SmfPictureAlbumC2ERKS_ @ 173 NONAME
	_ZN15SmfPictureAlbumC2Ev @ 174 NONAME
	_ZN15SmfPictureAlbumD1Ev @ 175 NONAME
	_ZN15SmfPictureAlbumD2Ev @ 176 NONAME
	_ZN15SmfPictureAlbumaSERKS_ @ 177 NONAME
	_ZN16SmfActivityEntry10setDetailsERK7SmfPost @ 178 NONAME
	_ZN16SmfActivityEntry12setTargetObjERK17SmfActivityObject @ 179 NONAME
	_ZN16SmfActivityEntry13setActionNameE15SmfActivityVerb @ 180 NONAME
	_ZN16SmfActivityEntry13setActivitiesER5QListI17SmfActivityObjectE @ 181 NONAME
	_ZN16SmfActivityEntry5setIdERK7QString @ 182 NONAME
	_ZN16SmfActivityEntry8setTitleERK7SmfPost @ 183 NONAME
	_ZN16SmfActivityEntry9setAuthorERK10SmfContact @ 184 NONAME
	_ZN16SmfActivityEntryC1ERKS_ @ 185 NONAME
	_ZN16SmfActivityEntryC1Ev @ 186 NONAME
	_ZN16SmfActivityEntryC2ERKS_ @ 187 NONAME
	_ZN16SmfActivityEntryC2Ev @ 188 NONAME
	_ZN16SmfActivityEntryD1Ev @ 189 NONAME
	_ZN16SmfActivityEntryD2Ev @ 190 NONAME
	_ZN17SmfActivityObject10setCaptionERK7QString @ 191 NONAME
	_ZN17SmfActivityObject10setContentERK7QString @ 192 NONAME
	_ZN17SmfActivityObject10setObjDataERK8QVariant @ 193 NONAME
	_ZN17SmfActivityObject12setThumbnailERK6QImage @ 194 NONAME
	_ZN17SmfActivityObject5setIdERK7QString @ 195 NONAME
	_ZN17SmfActivityObject7setLinkERK7QString @ 196 NONAME
	_ZN17SmfActivityObject7setTimeERK9QDateTime @ 197 NONAME
	_ZN17SmfActivityObject7setTypeERK21SmfActivityObjectType @ 198 NONAME
	_ZN17SmfActivityObjectC1ERKS_ @ 199 NONAME
	_ZN17SmfActivityObjectC1Ev @ 200 NONAME
	_ZN17SmfActivityObjectC2ERKS_ @ 201 NONAME
	_ZN17SmfActivityObjectC2Ev @ 202 NONAME
	_ZN17SmfActivityObjectD1Ev @ 203 NONAME
	_ZN17SmfActivityObjectD2Ev @ 204 NONAME
	_ZN17SmfActivityObjectaSERKS_ @ 205 NONAME
	_ZN19SmfMusicFingerPrint19setMusicFingerPrintERK10QByteArray @ 206 NONAME
	_ZN19SmfMusicFingerPrint5setIdERK7QString @ 207 NONAME
	_ZN19SmfMusicFingerPrintC1ERKS_ @ 208 NONAME
	_ZN19SmfMusicFingerPrintC1Ev @ 209 NONAME
	_ZN19SmfMusicFingerPrintC2ERKS_ @ 210 NONAME
	_ZN19SmfMusicFingerPrintC2Ev @ 211 NONAME
	_ZN19SmfMusicFingerPrintD1Ev @ 212 NONAME
	_ZN19SmfMusicFingerPrintD2Ev @ 213 NONAME
	_ZN19SmfMusicFingerPrintaSERKS_ @ 214 NONAME
	_ZN6SmfUrl12setHhreflangERK7QString @ 215 NONAME
	_ZN6SmfUrl5setIdERK7QString @ 216 NONAME
	_ZN6SmfUrl6setRelERK7QString @ 217 NONAME
	_ZN6SmfUrl7setHrefERK4QUrl @ 218 NONAME
	_ZN6SmfUrl7setTypeERK7QString @ 219 NONAME
	_ZN6SmfUrl8setTitleERK7QString @ 220 NONAME
	_ZN6SmfUrl9setLengthERK7QString @ 221 NONAME
	_ZN6SmfUrlC1ERKS_ @ 222 NONAME
	_ZN6SmfUrlC1Ev @ 223 NONAME
	_ZN6SmfUrlC2ERKS_ @ 224 NONAME
	_ZN6SmfUrlC2Ev @ 225 NONAME
	_ZN6SmfUrlD1Ev @ 226 NONAME
	_ZN6SmfUrlD2Ev @ 227 NONAME
	_ZN6SmfUrlaSERKS_ @ 228 NONAME
	_ZN7SmfPost14setDescriptionERK7QString @ 229 NONAME
	_ZN7SmfPost17setPostedDateTimeER9QDateTime @ 230 NONAME
	_ZN7SmfPost5setIdE7QString @ 231 NONAME
	_ZN7SmfPost6setUrlER4QUrl @ 232 NONAME
	_ZN7SmfPost8setImageERK6QImage @ 233 NONAME
	_ZN7SmfPost8setOwnerERK10SmfContact @ 234 NONAME
	_ZN7SmfPost8setTitleERK7QString @ 235 NONAME
	_ZN7SmfPostC1E10SmfContact7QStringS1_6QImage4QUrl @ 236 NONAME
	_ZN7SmfPostC1ERKS_ @ 237 NONAME
	_ZN7SmfPostC1Ev @ 238 NONAME
	_ZN7SmfPostC2E10SmfContact7QStringS1_6QImage4QUrl @ 239 NONAME
	_ZN7SmfPostC2ERKS_ @ 240 NONAME
	_ZN7SmfPostC2Ev @ 241 NONAME
	_ZN7SmfPostD1Ev @ 242 NONAME
	_ZN7SmfPostD2Ev @ 243 NONAME
	_ZN7SmfPostaSERKS_ @ 244 NONAME
	_ZN8SmfAlbum10setArtistsERK10SmfArtists @ 245 NONAME
	_ZN8SmfAlbum11setImageUrlERK4QUrl @ 246 NONAME
	_ZN8SmfAlbum11setLocationERK11SmfLocation @ 247 NONAME
	_ZN8SmfAlbum13setItemsCountEi @ 248 NONAME
	_ZN8SmfAlbum14setSecondaryIdERK7QString @ 249 NONAME
	_ZN8SmfAlbum5setIdERK7QString @ 250 NONAME
	_ZN8SmfAlbum7setNameERK7QString @ 251 NONAME
	_ZN8SmfAlbum7setTypeE17SmfAlbumMediaType @ 252 NONAME
	_ZN8SmfAlbumC1ERKS_ @ 253 NONAME
	_ZN8SmfAlbumC1Ev @ 254 NONAME
	_ZN8SmfAlbumC2ERKS_ @ 255 NONAME
	_ZN8SmfAlbumC2Ev @ 256 NONAME
	_ZN8SmfAlbumD1Ev @ 257 NONAME
	_ZN8SmfAlbumD2Ev @ 258 NONAME
	_ZN8SmfAlbumaSERKS_ @ 259 NONAME
	_ZN8SmfEvent10setArtistsERK10SmfArtists @ 260 NONAME
	_ZN8SmfEvent11setDurationERK5QTime @ 261 NONAME
	_ZN8SmfEvent12setTicketUrlERK4QUrl @ 262 NONAME
	_ZN8SmfEvent16setEventDateTimeERK9QDateTime @ 263 NONAME
	_ZN8SmfEvent5setIdERK7QString @ 264 NONAME
	_ZN8SmfEvent8setTitleERK7QString @ 265 NONAME
	_ZN8SmfEvent8setVenueERK11SmfLocation @ 266 NONAME
	_ZN8SmfEventC1ERKS_ @ 267 NONAME
	_ZN8SmfEventC1Ev @ 268 NONAME
	_ZN8SmfEventC2ERKS_ @ 269 NONAME
	_ZN8SmfEventC2Ev @ 270 NONAME
	_ZN8SmfEventD1Ev @ 271 NONAME
	_ZN8SmfEventD2Ev @ 272 NONAME
	_ZN8SmfEventaSERKS_ @ 273 NONAME
	_ZN8SmfGroup10setMembersEP5QListI10SmfContactE @ 274 NONAME
	_ZN8SmfGroup5setIdER7QString @ 275 NONAME
	_ZN8SmfGroup7setNameER7QString @ 276 NONAME
	_ZN8SmfGroupC1EP5QListI10SmfContactE @ 277 NONAME
	_ZN8SmfGroupC1ERKS_ @ 278 NONAME
	_ZN8SmfGroupC2EP5QListI10SmfContactE @ 279 NONAME
	_ZN8SmfGroupC2ERKS_ @ 280 NONAME
	_ZN8SmfGroupD1Ev @ 281 NONAME
	_ZN8SmfGroupD2Ev @ 282 NONAME
	_ZN8SmfGroupaSERKS_ @ 283 NONAME
	_ZN9SmfLyrics11setLanguageERK7QString @ 284 NONAME
	_ZN9SmfLyrics14setReleaseYearERK9QDateTime @ 285 NONAME
	_ZN9SmfLyrics5setIdERK7QString @ 286 NONAME
	_ZN9SmfLyrics9setLyricsERK10QByteArray @ 287 NONAME
	_ZN9SmfLyricsC1ERKS_ @ 288 NONAME
	_ZN9SmfLyricsC1Ev @ 289 NONAME
	_ZN9SmfLyricsC2ERKS_ @ 290 NONAME
	_ZN9SmfLyricsC2Ev @ 291 NONAME
	_ZN9SmfLyricsD1Ev @ 292 NONAME
	_ZN9SmfLyricsD2Ev @ 293 NONAME
	_ZN9SmfLyricsaSERKS_ @ 294 NONAME
	_ZNK10SmfArtists2idEv @ 295 NONAME
	_ZNK10SmfArtists3urlEv @ 296 NONAME
	_ZNK10SmfArtists4tagsEv @ 297 NONAME
	_ZNK10SmfArtists5imageEv @ 298 NONAME
	_ZNK10SmfArtists5namesEv @ 299 NONAME
	_ZNK10SmfComment2idEv @ 300 NONAME
	_ZNK10SmfComment4textEv @ 301 NONAME
	_ZNK10SmfComment9timeStampEv @ 302 NONAME
	_ZNK10SmfContact5valueERK7QString @ 303 NONAME
	_ZNK10SmfContact7convertERN10QtMobility8QContactE @ 304 NONAME
	_ZNK10SmfContact8subTypesEv @ 305 NONAME
	_ZNK10SmfPicture10postedDateEv @ 306 NONAME
	_ZNK10SmfPicture10visibilityEv @ 307 NONAME
	_ZNK10SmfPicture11descriptionEv @ 308 NONAME
	_ZNK10SmfPicture2idEv @ 309 NONAME
	_ZNK10SmfPicture3urlEv @ 310 NONAME
	_ZNK10SmfPicture4tagsEv @ 311 NONAME
	_ZNK10SmfPicture5ownerEv @ 312 NONAME
	_ZNK10SmfPicture5titleEv @ 313 NONAME
	_ZNK10SmfPicture7pictureEv @ 314 NONAME
	_ZNK10SmfPicture8commentsEv @ 315 NONAME
	_ZNK11SmfLocation15geoPositionInfoEv @ 316 NONAME
	_ZNK11SmfLocation2idEv @ 317 NONAME
	_ZNK11SmfLocation3urlEv @ 318 NONAME
	_ZNK11SmfLocation4cityEv @ 319 NONAME
	_ZNK11SmfLocation4nameEv @ 320 NONAME
	_ZNK11SmfLocation6streetEv @ 321 NONAME
	_ZNK11SmfLocation7countryEv @ 322 NONAME
	_ZNK11SmfLocation7zipCodeEv @ 323 NONAME
	_ZNK11SmfPlaylist11attributionEv @ 324 NONAME
	_ZNK11SmfPlaylist12creationDateEv @ 325 NONAME
	_ZNK11SmfPlaylist13playListTitleEv @ 326 NONAME
	_ZNK11SmfPlaylist2idEv @ 327 NONAME
	_ZNK11SmfPlaylist4infoEv @ 328 NONAME
	_ZNK11SmfPlaylist5imageEv @ 329 NONAME
	_ZNK11SmfPlaylist6authorEv @ 330 NONAME
	_ZNK11SmfPlaylist7licenseEv @ 331 NONAME
	_ZNK11SmfPlaylist7versionEv @ 332 NONAME
	_ZNK11SmfPlaylist8commentsEv @ 333 NONAME
	_ZNK11SmfPlaylist8locationEv @ 334 NONAME
	_ZNK11SmfPlaylist8metadataEv @ 335 NONAME
	_ZNK11SmfPlaylist9extensionEv @ 336 NONAME
	_ZNK11SmfPlaylist9trackListEv @ 337 NONAME
	_ZNK11SmfProvider10serviceUrlEv @ 338 NONAME
	_ZNK11SmfProvider11descriptionEv @ 339 NONAME
	_ZNK11SmfProvider11serviceIconEv @ 340 NONAME
	_ZNK11SmfProvider11serviceNameEv @ 341 NONAME
	_ZNK11SmfProvider14applicationUrlEv @ 342 NONAME
	_ZNK11SmfProvider18supportedLanguagesEv @ 343 NONAME
	_ZNK11SmfProvider19authenticationAppIdEv @ 344 NONAME
	_ZNK11SmfProvider19supportedInterfacesEv @ 345 NONAME
	_ZNK11SmfProvider21authenticationAppNameEv @ 346 NONAME
	_ZNK11SmfSubtitle11releaseYearEv @ 347 NONAME
	_ZNK11SmfSubtitle11subtitleUrlEv @ 348 NONAME
	_ZNK11SmfSubtitle2idEv @ 349 NONAME
	_ZNK11SmfSubtitle8durationEv @ 350 NONAME
	_ZNK11SmfSubtitle8languageEv @ 351 NONAME
	_ZNK11SmfSubtitle8subtitleEv @ 352 NONAME
	_ZNK11SmfSubtitle9frameRateEv @ 353 NONAME
	_ZNK12SmfTrackInfo2idEv @ 354 NONAME
	_ZNK12SmfTrackInfo4tagsEv @ 355 NONAME
	_ZNK12SmfTrackInfo4yearEv @ 356 NONAME
	_ZNK12SmfTrackInfo5albumEv @ 357 NONAME
	_ZNK12SmfTrackInfo5genreEv @ 358 NONAME
	_ZNK12SmfTrackInfo5titleEv @ 359 NONAME
	_ZNK12SmfTrackInfo6ratingEv @ 360 NONAME
	_ZNK12SmfTrackInfo7artistsEv @ 361 NONAME
	_ZNK12SmfTrackInfo8commentsEv @ 362 NONAME
	_ZNK12SmfTrackInfo8durationEv @ 363 NONAME
	_ZNK13SmfPluginUtil11errorStringEv @ 364 NONAME
	_ZNK13SmfPluginUtil9errorLineEv @ 365 NONAME
	_ZNK14SmfMusicRating6ratingEv @ 366 NONAME
	_ZNK14SmfMusicRating9maxRatingEv @ 367 NONAME
	_ZNK14SmfMusicRating9minRatingEv @ 368 NONAME
	_ZNK15SmfMusicProfile10userEventsEv @ 369 NONAME
	_ZNK15SmfMusicProfile12recentTracksEv @ 370 NONAME
	_ZNK15SmfMusicProfile2idEv @ 371 NONAME
	_ZNK15SmfMusicProfile9favoritesEv @ 372 NONAME
	_ZNK15SmfPictureAlbum10postedDateEv @ 373 NONAME
	_ZNK15SmfPictureAlbum10visibilityEv @ 374 NONAME
	_ZNK15SmfPictureAlbum11descriptionEv @ 375 NONAME
	_ZNK15SmfPictureAlbum12pictureCountEv @ 376 NONAME
	_ZNK15SmfPictureAlbum2idEv @ 377 NONAME
	_ZNK15SmfPictureAlbum3urlEv @ 378 NONAME
	_ZNK15SmfPictureAlbum5titleEv @ 379 NONAME
	_ZNK15SmfPictureAlbum8commentsEv @ 380 NONAME
	_ZNK15SmfPictureAlbum8keywordsEv @ 381 NONAME
	_ZNK15SmfPictureAlbum9thumbnailEv @ 382 NONAME
	_ZNK16SmfActivityEntry10actionNameEv @ 383 NONAME
	_ZNK16SmfActivityEntry10activitiesEv @ 384 NONAME
	_ZNK16SmfActivityEntry2idEv @ 385 NONAME
	_ZNK16SmfActivityEntry5titleEv @ 386 NONAME
	_ZNK16SmfActivityEntry6authorEv @ 387 NONAME
	_ZNK16SmfActivityEntry7detailsEv @ 388 NONAME
	_ZNK16SmfActivityEntry9targetObjEv @ 389 NONAME
	_ZNK17SmfActivityObject2idEv @ 390 NONAME
	_ZNK17SmfActivityObject4linkEv @ 391 NONAME
	_ZNK17SmfActivityObject4timeEv @ 392 NONAME
	_ZNK17SmfActivityObject4typeEv @ 393 NONAME
	_ZNK17SmfActivityObject7captionEv @ 394 NONAME
	_ZNK17SmfActivityObject7contentEv @ 395 NONAME
	_ZNK17SmfActivityObject7objDataEv @ 396 NONAME
	_ZNK17SmfActivityObject9thumbnailEv @ 397 NONAME
	_ZNK19SmfMusicFingerPrint16musicFingerPrintEv @ 398 NONAME
	_ZNK19SmfMusicFingerPrint2idEv @ 399 NONAME
	_ZNK6SmfUrl2idEv @ 400 NONAME
	_ZNK6SmfUrl3relEv @ 401 NONAME
	_ZNK6SmfUrl4hrefEv @ 402 NONAME
	_ZNK6SmfUrl4typeEv @ 403 NONAME
	_ZNK6SmfUrl5titleEv @ 404 NONAME
	_ZNK6SmfUrl6lengthEv @ 405 NONAME
	_ZNK6SmfUrl8hreflangEv @ 406 NONAME
	_ZNK7SmfPost11descriptionEv @ 407 NONAME
	_ZNK7SmfPost14postedDateTimeEv @ 408 NONAME
	_ZNK7SmfPost2idEv @ 409 NONAME
	_ZNK7SmfPost3urlEv @ 410 NONAME
	_ZNK7SmfPost5imageEv @ 411 NONAME
	_ZNK7SmfPost5ownerEv @ 412 NONAME
	_ZNK7SmfPost5titleEv @ 413 NONAME
	_ZNK8SmfAlbum10itemsCountEv @ 414 NONAME
	_ZNK8SmfAlbum11secondaryIdEv @ 415 NONAME
	_ZNK8SmfAlbum2idEv @ 416 NONAME
	_ZNK8SmfAlbum4nameEv @ 417 NONAME
	_ZNK8SmfAlbum4typeEv @ 418 NONAME
	_ZNK8SmfAlbum7artistsEv @ 419 NONAME
	_ZNK8SmfAlbum8imageUrlEv @ 420 NONAME
	_ZNK8SmfAlbum8locationEv @ 421 NONAME
	_ZNK8SmfEvent13eventDateTimeEv @ 422 NONAME
	_ZNK8SmfEvent2idEv @ 423 NONAME
	_ZNK8SmfEvent5titleEv @ 424 NONAME
	_ZNK8SmfEvent5venueEv @ 425 NONAME
	_ZNK8SmfEvent7artistsEv @ 426 NONAME
	_ZNK8SmfEvent8durationEv @ 427 NONAME
	_ZNK8SmfEvent9ticketUrlEv @ 428 NONAME
	_ZNK8SmfGroup2idEv @ 429 NONAME
	_ZNK8SmfGroup4nameEv @ 430 NONAME
	_ZNK8SmfGroup7membersEv @ 431 NONAME
	_ZNK9SmfLyrics11releaseYearEv @ 432 NONAME
	_ZNK9SmfLyrics2idEv @ 433 NONAME
	_ZNK9SmfLyrics6lyricsEv @ 434 NONAME
	_ZNK9SmfLyrics8languageEv @ 435 NONAME
	_ZlsR11QDataStreamRK10SmfArtists @ 436 NONAME
	_ZlsR11QDataStreamRK10SmfComment @ 437 NONAME
	_ZlsR11QDataStreamRK10SmfContact @ 438 NONAME
	_ZlsR11QDataStreamRK10SmfPicture @ 439 NONAME
	_ZlsR11QDataStreamRK11SmfLocation @ 440 NONAME
	_ZlsR11QDataStreamRK11SmfPlaylist @ 441 NONAME
	_ZlsR11QDataStreamRK11SmfProvider @ 442 NONAME
	_ZlsR11QDataStreamRK11SmfSubtitle @ 443 NONAME
	_ZlsR11QDataStreamRK12SmfTrackInfo @ 444 NONAME
	_ZlsR11QDataStreamRK14SmfMusicRating @ 445 NONAME
	_ZlsR11QDataStreamRK15SmfMusicProfile @ 446 NONAME
	_ZlsR11QDataStreamRK15SmfPictureAlbum @ 447 NONAME
	_ZlsR11QDataStreamRK16SmfActivityEntry @ 448 NONAME
	_ZlsR11QDataStreamRK17SmfActivityObject @ 449 NONAME
	_ZlsR11QDataStreamRK19SmfMusicFingerPrint @ 450 NONAME
	_ZlsR11QDataStreamRK6SmfUrl @ 451 NONAME
	_ZlsR11QDataStreamRK7SmfPost @ 452 NONAME
	_ZlsR11QDataStreamRK8SmfAlbum @ 453 NONAME
	_ZlsR11QDataStreamRK8SmfEvent @ 454 NONAME
	_ZlsR11QDataStreamRK8SmfGroup @ 455 NONAME
	_ZlsR11QDataStreamRK9SmfLyrics @ 456 NONAME
	_ZlsR11QDataStreamRKN10QtMobility10QContactIdE @ 457 NONAME
	_ZlsR11QDataStreamRKN10QtMobility11QContactUrlE @ 458 NONAME
	_ZlsR11QDataStreamRKN10QtMobility12QContactGuidE @ 459 NONAME
	_ZlsR11QDataStreamRKN10QtMobility12QContactNameE @ 460 NONAME
	_ZlsR11QDataStreamRKN10QtMobility12QContactNoteE @ 461 NONAME
	_ZlsR11QDataStreamRKN10QtMobility12QContactTypeE @ 462 NONAME
	_ZlsR11QDataStreamRKN10QtMobility14QContactAvatarE @ 463 NONAME
	_ZlsR11QDataStreamRKN10QtMobility14QContactGenderE @ 464 NONAME
	_ZlsR11QDataStreamRKN10QtMobility15QContactAddressE @ 465 NONAME
	_ZlsR11QDataStreamRKN10QtMobility16QContactBirthdayE @ 466 NONAME
	_ZlsR11QDataStreamRKN10QtMobility16QContactNicknameE @ 467 NONAME
	_ZlsR11QDataStreamRKN10QtMobility16QContactPresenceE @ 468 NONAME
	_ZlsR11QDataStreamRKN10QtMobility17QContactThumbnailE @ 469 NONAME
	_ZlsR11QDataStreamRKN10QtMobility17QContactTimestampE @ 470 NONAME
	_ZlsR11QDataStreamRKN10QtMobility19QContactAnniversaryE @ 471 NONAME
	_ZlsR11QDataStreamRKN10QtMobility19QContactGeoLocationE @ 472 NONAME
	_ZlsR11QDataStreamRKN10QtMobility19QContactPhoneNumberE @ 473 NONAME
	_ZlsR11QDataStreamRKN10QtMobility20QContactEmailAddressE @ 474 NONAME
	_ZlsR11QDataStreamRKN10QtMobility20QContactOrganizationE @ 475 NONAME
	_ZlsR11QDataStreamRKN10QtMobility21QContactOnlineAccountE @ 476 NONAME
	_ZrsR11QDataStreamR10SmfArtists @ 477 NONAME
	_ZrsR11QDataStreamR10SmfComment @ 478 NONAME
	_ZrsR11QDataStreamR10SmfContact @ 479 NONAME
	_ZrsR11QDataStreamR10SmfPicture @ 480 NONAME
	_ZrsR11QDataStreamR11SmfLocation @ 481 NONAME
	_ZrsR11QDataStreamR11SmfPlaylist @ 482 NONAME
	_ZrsR11QDataStreamR11SmfProvider @ 483 NONAME
	_ZrsR11QDataStreamR11SmfSubtitle @ 484 NONAME
	_ZrsR11QDataStreamR12SmfTrackInfo @ 485 NONAME
	_ZrsR11QDataStreamR14SmfMusicRating @ 486 NONAME
	_ZrsR11QDataStreamR15SmfMusicProfile @ 487 NONAME
	_ZrsR11QDataStreamR15SmfPictureAlbum @ 488 NONAME
	_ZrsR11QDataStreamR16SmfActivityEntry @ 489 NONAME
	_ZrsR11QDataStreamR17SmfActivityObject @ 490 NONAME
	_ZrsR11QDataStreamR19SmfMusicFingerPrint @ 491 NONAME
	_ZrsR11QDataStreamR6SmfUrl @ 492 NONAME
	_ZrsR11QDataStreamR7SmfPost @ 493 NONAME
	_ZrsR11QDataStreamR8SmfAlbum @ 494 NONAME
	_ZrsR11QDataStreamR8SmfEvent @ 495 NONAME
	_ZrsR11QDataStreamR8SmfGroup @ 496 NONAME
	_ZrsR11QDataStreamR9SmfLyrics @ 497 NONAME
	_ZrsR11QDataStreamRN10QtMobility10QContactIdE @ 498 NONAME
	_ZrsR11QDataStreamRN10QtMobility11QContactUrlE @ 499 NONAME
	_ZrsR11QDataStreamRN10QtMobility12QContactGuidE @ 500 NONAME
	_ZrsR11QDataStreamRN10QtMobility12QContactNameE @ 501 NONAME
	_ZrsR11QDataStreamRN10QtMobility12QContactNoteE @ 502 NONAME
	_ZrsR11QDataStreamRN10QtMobility12QContactTypeE @ 503 NONAME
	_ZrsR11QDataStreamRN10QtMobility14QContactAvatarE @ 504 NONAME
	_ZrsR11QDataStreamRN10QtMobility14QContactGenderE @ 505 NONAME
	_ZrsR11QDataStreamRN10QtMobility15QContactAddressE @ 506 NONAME
	_ZrsR11QDataStreamRN10QtMobility16QContactBirthdayE @ 507 NONAME
	_ZrsR11QDataStreamRN10QtMobility16QContactNicknameE @ 508 NONAME
	_ZrsR11QDataStreamRN10QtMobility16QContactPresenceE @ 509 NONAME
	_ZrsR11QDataStreamRN10QtMobility17QContactThumbnailE @ 510 NONAME
	_ZrsR11QDataStreamRN10QtMobility17QContactTimestampE @ 511 NONAME
	_ZrsR11QDataStreamRN10QtMobility19QContactAnniversaryE @ 512 NONAME
	_ZrsR11QDataStreamRN10QtMobility19QContactGeoLocationE @ 513 NONAME
	_ZrsR11QDataStreamRN10QtMobility19QContactPhoneNumberE @ 514 NONAME
	_ZrsR11QDataStreamRN10QtMobility20QContactEmailAddressE @ 515 NONAME
	_ZrsR11QDataStreamRN10QtMobility20QContactOrganizationE @ 516 NONAME
	_ZrsR11QDataStreamRN10QtMobility21QContactOnlineAccountE @ 517 NONAME

