EXPORTS
	_ZN10SmfArtists6setUrlERK4QUrl @ 1 NONAME
	_ZN10SmfArtists8setImageERK6QImage @ 2 NONAME
	_ZN10SmfArtists8setNamesERK11QStringList @ 3 NONAME
	_ZN10SmfArtistsC1ERKS_ @ 4 NONAME
	_ZN10SmfArtistsC1Ev @ 5 NONAME
	_ZN10SmfArtistsC2ERKS_ @ 6 NONAME
	_ZN10SmfArtistsC2Ev @ 7 NONAME
	_ZN10SmfArtistsD1Ev @ 8 NONAME
	_ZN10SmfArtistsD2Ev @ 9 NONAME
	_ZN10SmfArtistsaSERKS_ @ 10 NONAME
	_ZN10SmfComment12setTimeStampERK9QDateTime @ 11 NONAME
	_ZN10SmfComment5setIdERK7QString @ 12 NONAME
	_ZN10SmfComment7setTextERK7QString @ 13 NONAME
	_ZN10SmfCommentC1ERKS_ @ 14 NONAME
	_ZN10SmfCommentC1Ev @ 15 NONAME
	_ZN10SmfCommentC2ERKS_ @ 16 NONAME
	_ZN10SmfCommentC2Ev @ 17 NONAME
	_ZN10SmfCommentD1Ev @ 18 NONAME
	_ZN10SmfCommentD2Ev @ 19 NONAME
	_ZN10SmfCommentaSERKS_ @ 20 NONAME
	_ZN10SmfContact8setValueERK7QStringR8QVariant @ 21 NONAME
	_ZN10SmfContactC1EP7QObject @ 22 NONAME
	_ZN10SmfContactC1ERKS_ @ 23 NONAME
	_ZN10SmfContactC2EP7QObject @ 24 NONAME
	_ZN10SmfContactC2ERKS_ @ 25 NONAME
	_ZN10SmfContactD1Ev @ 26 NONAME
	_ZN10SmfContactD2Ev @ 27 NONAME
	_ZN10SmfGallery11descriptionER10SmfPicture @ 28 NONAME
	_ZN10SmfGallery11getProviderEv @ 29 NONAME
	_ZN10SmfGallery11postCommentE10SmfPicture10SmfComment @ 30 NONAME
	_ZN10SmfGallery11qt_metacallEN11QMetaObject4CallEiPPv @ 31 NONAME
	_ZN10SmfGallery11qt_metacastEPKc @ 32 NONAME
	_ZN10SmfGallery14uploadFinishedE5QListIbE @ 33 NONAME
	_ZN10SmfGallery16staticMetaObjectE @ 34 NONAME DATA 16
	_ZN10SmfGallery17picturesAvailableEP5QListI10SmfPictureE8SmfError13SmfResultPage @ 35 NONAME
	_ZN10SmfGallery19customDataAvailableEiP10QByteArray @ 36 NONAME
	_ZN10SmfGallery19getStaticMetaObjectEv @ 37 NONAME
	_ZN10SmfGallery6uploadEP10SmfPicture @ 38 NONAME
	_ZN10SmfGallery6uploadEP5QListI10SmfPictureE @ 39 NONAME
	_ZN10SmfGallery8picturesEii @ 40 NONAME
	_ZN10SmfGalleryC1EP11SmfProvider @ 41 NONAME
	_ZN10SmfGalleryC2EP11SmfProvider @ 42 NONAME
	_ZN10SmfGalleryD0Ev @ 43 NONAME
	_ZN10SmfGalleryD1Ev @ 44 NONAME
	_ZN10SmfGalleryD2Ev @ 45 NONAME
	_ZN10SmfPicture10addCommentERK10SmfComment @ 46 NONAME
	_ZN10SmfPicture10setPictureERK6QImage @ 47 NONAME
	_ZN10SmfPicture13setPostedDateERK9QDateTime @ 48 NONAME
	_ZN10SmfPicture13setVisibilityERK20SmfPictureVisibility @ 49 NONAME
	_ZN10SmfPicture14setDescriptionERK7QString @ 50 NONAME
	_ZN10SmfPicture5setIdERK7QString @ 51 NONAME
	_ZN10SmfPicture6setUrlERK4QUrl @ 52 NONAME
	_ZN10SmfPicture7addTagsERK11QStringList @ 53 NONAME
	_ZN10SmfPicture8setOwnerERK7QString @ 54 NONAME
	_ZN10SmfPicture8setTitleERK7QString @ 55 NONAME
	_ZN10SmfPictureC1ERK6QImage @ 56 NONAME
	_ZN10SmfPictureC1ERKS_ @ 57 NONAME
	_ZN10SmfPictureC1Ev @ 58 NONAME
	_ZN10SmfPictureC2ERK6QImage @ 59 NONAME
	_ZN10SmfPictureC2ERKS_ @ 60 NONAME
	_ZN10SmfPictureC2Ev @ 61 NONAME
	_ZN10SmfPictureD1Ev @ 62 NONAME
	_ZN10SmfPictureD2Ev @ 63 NONAME
	_ZN10SmfPictureaSERKS_ @ 64 NONAME
	_ZN11SmfLocation10setCountryERK7QString @ 65 NONAME
	_ZN11SmfLocation10setZipCodeERK7QString @ 66 NONAME
	_ZN11SmfLocation18setGeoPositionInfoERKN10QtMobility16QGeoPositionInfoE @ 67 NONAME
	_ZN11SmfLocation5setIdERK7QString @ 68 NONAME
	_ZN11SmfLocation6setUrlERK4QUrl @ 69 NONAME
	_ZN11SmfLocation7setCityERK7QString @ 70 NONAME
	_ZN11SmfLocation7setNameERK7QString @ 71 NONAME
	_ZN11SmfLocation9setStreetERK7QString @ 72 NONAME
	_ZN11SmfLocationC1ERKS_ @ 73 NONAME
	_ZN11SmfLocationC1Ev @ 74 NONAME
	_ZN11SmfLocationC2ERKS_ @ 75 NONAME
	_ZN11SmfLocationC2Ev @ 76 NONAME
	_ZN11SmfLocationD1Ev @ 77 NONAME
	_ZN11SmfLocationD2Ev @ 78 NONAME
	_ZN11SmfLocationaSERKS_ @ 79 NONAME
	_ZN11SmfPlaylist12setTrackListERK5QListI12SmfTrackInfoE @ 80 NONAME
	_ZN11SmfPlaylist15setCreationDateERK9QDateTime @ 81 NONAME
	_ZN11SmfPlaylist16setPlayListTitleERK7QString @ 82 NONAME
	_ZN11SmfPlaylist5setIdERK7QString @ 83 NONAME
	_ZN11SmfPlaylistC1ERKS_ @ 84 NONAME
	_ZN11SmfPlaylistC1Ev @ 85 NONAME
	_ZN11SmfPlaylistC2ERKS_ @ 86 NONAME
	_ZN11SmfPlaylistC2Ev @ 87 NONAME
	_ZN11SmfPlaylistD1Ev @ 88 NONAME
	_ZN11SmfPlaylistD2Ev @ 89 NONAME
	_ZN11SmfPlaylistaSERKS_ @ 90 NONAME
	_ZN11SmfProvider10serviceUrlER4QUrl @ 91 NONAME
	_ZN11SmfProvider11descriptionER7QString @ 92 NONAME
	_ZN11SmfProvider11serviceIconER6QImage @ 93 NONAME
	_ZN11SmfProvider11serviceNameER7QString @ 94 NONAME
	_ZN11SmfProvider12serviceTypesER11QStringList @ 95 NONAME
	_ZN11SmfProvider14applicationUrlER4QUrl @ 96 NONAME
	_ZN11SmfProviderC1EP7QObject @ 97 NONAME
	_ZN11SmfProviderC2EP7QObject @ 98 NONAME
	_ZN11SmfProviderD1Ev @ 99 NONAME
	_ZN11SmfProviderD2Ev @ 100 NONAME
	_ZN11SmfSubtitle11setDurationERKd @ 101 NONAME
	_ZN11SmfSubtitle11setLanguageERK7QString @ 102 NONAME
	_ZN11SmfSubtitle11setSubtitleERK10QByteArray @ 103 NONAME
	_ZN11SmfSubtitle12setFrameRateERKd @ 104 NONAME
	_ZN11SmfSubtitle14setReleaseYearERK9QDateTime @ 105 NONAME
	_ZN11SmfSubtitle5setIdERK7QString @ 106 NONAME
	_ZN11SmfSubtitleC1ERKS_ @ 107 NONAME
	_ZN11SmfSubtitleC1Ev @ 108 NONAME
	_ZN11SmfSubtitleC2ERKS_ @ 109 NONAME
	_ZN11SmfSubtitleC2Ev @ 110 NONAME
	_ZN11SmfSubtitleD1Ev @ 111 NONAME
	_ZN11SmfSubtitleD2Ev @ 112 NONAME
	_ZN11SmfSubtitleaSERKS_ @ 113 NONAME
	_ZN12SmfTrackInfo10setArtistsERK10SmfArtists @ 114 NONAME
	_ZN12SmfTrackInfo10setCommentERK5QListI10SmfCommentE @ 115 NONAME
	_ZN12SmfTrackInfo11setDurationERK5QTime @ 116 NONAME
	_ZN12SmfTrackInfo5setIdERK7QString @ 117 NONAME
	_ZN12SmfTrackInfo7setTagsERK11QStringList @ 118 NONAME
	_ZN12SmfTrackInfo7setYearERK9QDateTime @ 119 NONAME
	_ZN12SmfTrackInfo8setAlbumERK8SmfAlbum @ 120 NONAME
	_ZN12SmfTrackInfo8setGenreERK7QString @ 121 NONAME
	_ZN12SmfTrackInfo8setTitleERK7QString @ 122 NONAME
	_ZN12SmfTrackInfo9setRatingERK14SmfMusicRating @ 123 NONAME
	_ZN12SmfTrackInfoC1ERKS_ @ 124 NONAME
	_ZN12SmfTrackInfoC1Ev @ 125 NONAME
	_ZN12SmfTrackInfoC2ERKS_ @ 126 NONAME
	_ZN12SmfTrackInfoC2Ev @ 127 NONAME
	_ZN12SmfTrackInfoD1Ev @ 128 NONAME
	_ZN12SmfTrackInfoD2Ev @ 129 NONAME
	_ZN12SmfTrackInfoaSERKS_ @ 130 NONAME
	_ZN14SmfMusicRating12setMaxRatingERKi @ 131 NONAME
	_ZN14SmfMusicRating12setMinRatingERKi @ 132 NONAME
	_ZN14SmfMusicRating9setRatingERKi @ 133 NONAME
	_ZN14SmfMusicRatingC1EP12SmfTrackInfo @ 134 NONAME
	_ZN14SmfMusicRatingC1ERKS_ @ 135 NONAME
	_ZN14SmfMusicRatingC2EP12SmfTrackInfo @ 136 NONAME
	_ZN14SmfMusicRatingC2ERKS_ @ 137 NONAME
	_ZN14SmfMusicRatingD1Ev @ 138 NONAME
	_ZN14SmfMusicRatingD2Ev @ 139 NONAME
	_ZN14SmfMusicRatingaSERKS_ @ 140 NONAME
	_ZN15SmfMusicProfile13setUserEventsERK5QListI8SmfEventE @ 141 NONAME
	_ZN15SmfMusicProfile15setInterestInfoERK5QListI12SmfTrackInfoE @ 142 NONAME
	_ZN15SmfMusicProfile17setMusicUsageInfoERK5QListI12SmfTrackInfoE @ 143 NONAME
	_ZN15SmfMusicProfile5setIdERK7QString @ 144 NONAME
	_ZN15SmfMusicProfileC1ERKS_ @ 145 NONAME
	_ZN15SmfMusicProfileC1Ev @ 146 NONAME
	_ZN15SmfMusicProfileC2ERKS_ @ 147 NONAME
	_ZN15SmfMusicProfileC2Ev @ 148 NONAME
	_ZN15SmfMusicProfileD1Ev @ 149 NONAME
	_ZN15SmfMusicProfileD2Ev @ 150 NONAME
	_ZN15SmfMusicProfileaSERKS_ @ 151 NONAME
	_ZN15SmfPostProvider10updatePostER7SmfPost @ 152 NONAME
	_ZN15SmfPostProvider11qt_metacallEN11QMetaObject4CallEiPPv @ 153 NONAME
	_ZN15SmfPostProvider11qt_metacastEPKc @ 154 NONAME
	_ZN15SmfPostProvider12postDirectedER7SmfPostR10SmfContactP11SmfLocation @ 155 NONAME
	_ZN15SmfPostProvider12postFinishedEb @ 156 NONAME
	_ZN15SmfPostProvider14postAppearenceE17SmfAppearenceInfo @ 157 NONAME
	_ZN15SmfPostProvider14postsAvailableEP5QListI7SmfPostE8SmfError13SmfResultPage @ 158 NONAME
	_ZN15SmfPostProvider16staticMetaObjectE @ 159 NONAME DATA 16
	_ZN15SmfPostProvider19customDataAvailableEiP10QByteArray @ 160 NONAME
	_ZN15SmfPostProvider19getStaticMetaObjectEv @ 161 NONAME
	_ZN15SmfPostProvider4postER7SmfPostR11SmfLocation @ 162 NONAME
	_ZN15SmfPostProvider5postsEP10SmfContactii @ 163 NONAME
	_ZN15SmfPostProvider9sharePostER7SmfPostR10SmfContactb @ 164 NONAME
	_ZN15SmfPostProviderC1EP11SmfProvider @ 165 NONAME
	_ZN15SmfPostProviderC2EP11SmfProvider @ 166 NONAME
	_ZN15SmfPostProviderD0Ev @ 167 NONAME
	_ZN15SmfPostProviderD1Ev @ 168 NONAME
	_ZN15SmfPostProviderD2Ev @ 169 NONAME
	_ZN17SmfContactFetcher10searchNearEP11SmfLocation25SmfLocationSearchBoundaryii @ 170 NONAME
	_ZN17SmfContactFetcher11getProviderEv @ 171 NONAME
	_ZN17SmfContactFetcher11qt_metacallEN11QMetaObject4CallEiPPv @ 172 NONAME
	_ZN17SmfContactFetcher11qt_metacastEPKc @ 173 NONAME
	_ZN17SmfContactFetcher13customRequestERKiP10QByteArray @ 174 NONAME
	_ZN17SmfContactFetcher13searchInGroupE8SmfGroupii @ 175 NONAME
	_ZN17SmfContactFetcher16staticMetaObjectE @ 176 NONAME DATA 16
	_ZN17SmfContactFetcher18groupListAvailableEP5QListI8SmfGroupE8SmfError13SmfResultPage @ 177 NONAME
	_ZN17SmfContactFetcher18searchNearFinishedEP5QListI10SmfContactE8SmfError13SmfResultPage @ 178 NONAME
	_ZN17SmfContactFetcher19customDataAvailableEiP10QByteArray @ 179 NONAME
	_ZN17SmfContactFetcher19getStaticMetaObjectEv @ 180 NONAME
	_ZN17SmfContactFetcher20friendsListAvailableEP5QListI10SmfContactE8SmfError13SmfResultPage @ 181 NONAME
	_ZN17SmfContactFetcher21searchContactFinishedEP5QListI10SmfContactE8SmfError13SmfResultPage @ 182 NONAME
	_ZN17SmfContactFetcher21searchInGroupFinishedEP5QListI10SmfContactE8SmfError13SmfResultPage @ 183 NONAME
	_ZN17SmfContactFetcher22followersListAvailableEP5QListI10SmfContactE8SmfError13SmfResultPage @ 184 NONAME
	_ZN17SmfContactFetcher6groupsEii @ 185 NONAME
	_ZN17SmfContactFetcher6searchEP10SmfContactii @ 186 NONAME
	_ZN17SmfContactFetcher7friendsEii @ 187 NONAME
	_ZN17SmfContactFetcher9followersEii @ 188 NONAME
	_ZN17SmfContactFetcherC1EP11SmfProvider @ 189 NONAME
	_ZN17SmfContactFetcherC1EP11SmfProviderP10SmfContact @ 190 NONAME
	_ZN17SmfContactFetcherC2EP11SmfProvider @ 191 NONAME
	_ZN17SmfContactFetcherC2EP11SmfProviderP10SmfContact @ 192 NONAME
	_ZN17SmfContactFetcherD0Ev @ 193 NONAME
	_ZN17SmfContactFetcherD1Ev @ 194 NONAME
	_ZN17SmfContactFetcherD2Ev @ 195 NONAME
	_ZN19SmfMusicFingerPrint19setMusicFingerPrintERK10QByteArray @ 196 NONAME
	_ZN19SmfMusicFingerPrintC1ERKS_ @ 197 NONAME
	_ZN19SmfMusicFingerPrintC1Ev @ 198 NONAME
	_ZN19SmfMusicFingerPrintC2ERKS_ @ 199 NONAME
	_ZN19SmfMusicFingerPrintC2Ev @ 200 NONAME
	_ZN19SmfMusicFingerPrintD1Ev @ 201 NONAME
	_ZN19SmfMusicFingerPrintD2Ev @ 202 NONAME
	_ZN19SmfMusicFingerPrintaSERKS_ @ 203 NONAME
	_ZN7SmfPost14setDescriptionERK7QString @ 204 NONAME
	_ZN7SmfPost5setIdE7QString @ 205 NONAME
	_ZN7SmfPost6setUrlER4QUrl @ 206 NONAME
	_ZN7SmfPost8setImageERK6QImage @ 207 NONAME
	_ZN7SmfPost8setTitleERK7QString @ 208 NONAME
	_ZN7SmfPostC1E7QStringS0_6QImage4QUrl @ 209 NONAME
	_ZN7SmfPostC1ERKS_ @ 210 NONAME
	_ZN7SmfPostC1Ev @ 211 NONAME
	_ZN7SmfPostC2E7QStringS0_6QImage4QUrl @ 212 NONAME
	_ZN7SmfPostC2ERKS_ @ 213 NONAME
	_ZN7SmfPostC2Ev @ 214 NONAME
	_ZN7SmfPostD1Ev @ 215 NONAME
	_ZN7SmfPostD2Ev @ 216 NONAME
	_ZN7SmfPostaSERKS_ @ 217 NONAME
	_ZN8SmfAlbum10setArtistsERK10SmfArtists @ 218 NONAME
	_ZN8SmfAlbum5setIdERK7QString @ 219 NONAME
	_ZN8SmfAlbum7setNameERK7QString @ 220 NONAME
	_ZN8SmfAlbum8setImageERK6QImage @ 221 NONAME
	_ZN8SmfAlbumC1ERKS_ @ 222 NONAME
	_ZN8SmfAlbumC1Ev @ 223 NONAME
	_ZN8SmfAlbumC2ERKS_ @ 224 NONAME
	_ZN8SmfAlbumC2Ev @ 225 NONAME
	_ZN8SmfAlbumD1Ev @ 226 NONAME
	_ZN8SmfAlbumD2Ev @ 227 NONAME
	_ZN8SmfAlbumaSERKS_ @ 228 NONAME
	_ZN8SmfEvent10setArtistsERK10SmfArtists @ 229 NONAME
	_ZN8SmfEvent11setDurationERK5QTime @ 230 NONAME
	_ZN8SmfEvent12setTicketUrlERK4QUrl @ 231 NONAME
	_ZN8SmfEvent16setEventDateTimeERK9QDateTime @ 232 NONAME
	_ZN8SmfEvent5setIdERK7QString @ 233 NONAME
	_ZN8SmfEvent8setTitleERK7QString @ 234 NONAME
	_ZN8SmfEvent8setVenueERK11SmfLocation @ 235 NONAME
	_ZN8SmfEventC1ERKS_ @ 236 NONAME
	_ZN8SmfEventC1Ev @ 237 NONAME
	_ZN8SmfEventC2ERKS_ @ 238 NONAME
	_ZN8SmfEventC2Ev @ 239 NONAME
	_ZN8SmfEventD1Ev @ 240 NONAME
	_ZN8SmfEventD2Ev @ 241 NONAME
	_ZN8SmfEventaSERKS_ @ 242 NONAME
	_ZN8SmfGroup10setMembersEP5QListI10SmfContactE @ 243 NONAME
	_ZN8SmfGroup5setIdER7QString @ 244 NONAME
	_ZN8SmfGroup7setNameER7QString @ 245 NONAME
	_ZN8SmfGroupC1EP5QListI10SmfContactE @ 246 NONAME
	_ZN8SmfGroupC1ERKS_ @ 247 NONAME
	_ZN8SmfGroupC2EP5QListI10SmfContactE @ 248 NONAME
	_ZN8SmfGroupC2ERKS_ @ 249 NONAME
	_ZN8SmfGroupD1Ev @ 250 NONAME
	_ZN8SmfGroupD2Ev @ 251 NONAME
	_ZN8SmfGroupaSERKS_ @ 252 NONAME
	_ZN9SmfClient11GetServicesERK7QString @ 253 NONAME
	_ZN9SmfClientC1Ev @ 254 NONAME
	_ZN9SmfClientC2Ev @ 255 NONAME
	_ZN9SmfClientD1Ev @ 256 NONAME
	_ZN9SmfClientD2Ev @ 257 NONAME
	_ZN9SmfLyrics11setLanguageERK7QString @ 258 NONAME
	_ZN9SmfLyrics14setReleaseYearERK9QDateTime @ 259 NONAME
	_ZN9SmfLyrics5setIdERK7QString @ 260 NONAME
	_ZN9SmfLyrics9setLyricsERK10QByteArray @ 261 NONAME
	_ZN9SmfLyricsC1ERKS_ @ 262 NONAME
	_ZN9SmfLyricsC1Ev @ 263 NONAME
	_ZN9SmfLyricsC2ERKS_ @ 264 NONAME
	_ZN9SmfLyricsC2Ev @ 265 NONAME
	_ZN9SmfLyricsD1Ev @ 266 NONAME
	_ZN9SmfLyricsD2Ev @ 267 NONAME
	_ZN9SmfLyricsaSERKS_ @ 268 NONAME
	_ZNK10SmfArtists3urlEv @ 269 NONAME
	_ZNK10SmfArtists5imageEv @ 270 NONAME
	_ZNK10SmfArtists5namesEv @ 271 NONAME
	_ZNK10SmfComment2idEv @ 272 NONAME
	_ZNK10SmfComment4textEv @ 273 NONAME
	_ZNK10SmfComment9timeStampEv @ 274 NONAME
	_ZNK10SmfContact5valueERK7QString @ 275 NONAME
	_ZNK10SmfContact7convertERN10QtMobility8QContactE @ 276 NONAME
	_ZNK10SmfContact8subTypesEv @ 277 NONAME
	_ZNK10SmfContact8writeLogE7QString @ 278 NONAME
	_ZNK10SmfGallery10metaObjectEv @ 279 NONAME
	_ZNK10SmfPicture10postedDateEv @ 280 NONAME
	_ZNK10SmfPicture10visibilityEv @ 281 NONAME
	_ZNK10SmfPicture11descriptionEv @ 282 NONAME
	_ZNK10SmfPicture2idEv @ 283 NONAME
	_ZNK10SmfPicture3urlEv @ 284 NONAME
	_ZNK10SmfPicture4tagsEv @ 285 NONAME
	_ZNK10SmfPicture5ownerEv @ 286 NONAME
	_ZNK10SmfPicture5titleEv @ 287 NONAME
	_ZNK10SmfPicture7pictureEv @ 288 NONAME
	_ZNK10SmfPicture8commentsEv @ 289 NONAME
	_ZNK11SmfLocation15geoPositionInfoEv @ 290 NONAME
	_ZNK11SmfLocation2idEv @ 291 NONAME
	_ZNK11SmfLocation3urlEv @ 292 NONAME
	_ZNK11SmfLocation4cityEv @ 293 NONAME
	_ZNK11SmfLocation4nameEv @ 294 NONAME
	_ZNK11SmfLocation6streetEv @ 295 NONAME
	_ZNK11SmfLocation7countryEv @ 296 NONAME
	_ZNK11SmfLocation7zipCodeEv @ 297 NONAME
	_ZNK11SmfPlaylist12creationDateEv @ 298 NONAME
	_ZNK11SmfPlaylist13playListTitleEv @ 299 NONAME
	_ZNK11SmfPlaylist2idEv @ 300 NONAME
	_ZNK11SmfPlaylist9trackListEv @ 301 NONAME
	_ZNK11SmfProvider10serviceUrlEv @ 302 NONAME
	_ZNK11SmfProvider11descriptionEv @ 303 NONAME
	_ZNK11SmfProvider11serviceIconEv @ 304 NONAME
	_ZNK11SmfProvider11serviceNameEv @ 305 NONAME
	_ZNK11SmfProvider12serviceTypesEv @ 306 NONAME
	_ZNK11SmfProvider14applicationUrlEv @ 307 NONAME
	_ZNK11SmfSubtitle11releaseYearEv @ 308 NONAME
	_ZNK11SmfSubtitle2idEv @ 309 NONAME
	_ZNK11SmfSubtitle8durationEv @ 310 NONAME
	_ZNK11SmfSubtitle8languageEv @ 311 NONAME
	_ZNK11SmfSubtitle8subtitleEv @ 312 NONAME
	_ZNK11SmfSubtitle9frameRateEv @ 313 NONAME
	_ZNK12SmfTrackInfo2idEv @ 314 NONAME
	_ZNK12SmfTrackInfo4tagsEv @ 315 NONAME
	_ZNK12SmfTrackInfo4yearEv @ 316 NONAME
	_ZNK12SmfTrackInfo5albumEv @ 317 NONAME
	_ZNK12SmfTrackInfo5genreEv @ 318 NONAME
	_ZNK12SmfTrackInfo5titleEv @ 319 NONAME
	_ZNK12SmfTrackInfo6ratingEv @ 320 NONAME
	_ZNK12SmfTrackInfo7artistsEv @ 321 NONAME
	_ZNK12SmfTrackInfo8commentsEv @ 322 NONAME
	_ZNK12SmfTrackInfo8durationEv @ 323 NONAME
	_ZNK14SmfMusicRating6ratingEv @ 324 NONAME
	_ZNK14SmfMusicRating9maxRatingEv @ 325 NONAME
	_ZNK14SmfMusicRating9minRatingEv @ 326 NONAME
	_ZNK15SmfMusicProfile10userEventsEv @ 327 NONAME
	_ZNK15SmfMusicProfile12interestInfoEv @ 328 NONAME
	_ZNK15SmfMusicProfile14musicUsageInfoEv @ 329 NONAME
	_ZNK15SmfMusicProfile2idEv @ 330 NONAME
	_ZNK15SmfPostProvider10metaObjectEv @ 331 NONAME
	_ZNK15SmfPostProvider11getProviderEv @ 332 NONAME
	_ZNK15SmfPostProvider14maxCharsInPostEv @ 333 NONAME
	_ZNK15SmfPostProvider16supportedFormatsEv @ 334 NONAME
	_ZNK15SmfPostProvider18supportsAppearenceEv @ 335 NONAME
	_ZNK15SmfPostProvider8maxItemsEv @ 336 NONAME
	_ZNK17SmfContactFetcher10metaObjectEv @ 337 NONAME
	_ZNK19SmfMusicFingerPrint16musicFingerPrintEv @ 338 NONAME
	_ZNK7SmfPost11descriptionEv @ 339 NONAME
	_ZNK7SmfPost2idEv @ 340 NONAME
	_ZNK7SmfPost3urlEv @ 341 NONAME
	_ZNK7SmfPost5imageEv @ 342 NONAME
	_ZNK7SmfPost5titleEv @ 343 NONAME
	_ZNK8SmfAlbum2idEv @ 344 NONAME
	_ZNK8SmfAlbum4nameEv @ 345 NONAME
	_ZNK8SmfAlbum5imageEv @ 346 NONAME
	_ZNK8SmfAlbum7artistsEv @ 347 NONAME
	_ZNK8SmfEvent13eventDateTimeEv @ 348 NONAME
	_ZNK8SmfEvent2idEv @ 349 NONAME
	_ZNK8SmfEvent5titleEv @ 350 NONAME
	_ZNK8SmfEvent5venueEv @ 351 NONAME
	_ZNK8SmfEvent7artistsEv @ 352 NONAME
	_ZNK8SmfEvent8durationEv @ 353 NONAME
	_ZNK8SmfEvent9ticketUrlEv @ 354 NONAME
	_ZNK8SmfGroup2idEv @ 355 NONAME
	_ZNK8SmfGroup4nameEv @ 356 NONAME
	_ZNK8SmfGroup7membersEv @ 357 NONAME
	_ZNK9SmfClient8writeLogE7QString @ 358 NONAME
	_ZNK9SmfLyrics11releaseYearEv @ 359 NONAME
	_ZNK9SmfLyrics2idEv @ 360 NONAME
	_ZNK9SmfLyrics6lyricsEv @ 361 NONAME
	_ZNK9SmfLyrics8languageEv @ 362 NONAME
	_ZTI10SmfGallery @ 363 NONAME
	_ZTI15SmfPostProvider @ 364 NONAME
	_ZTI16SmfClientPrivate @ 365 NONAME
	_ZTI17CSmfClientSymbian @ 366 NONAME
	_ZTI17SmfContactFetcher @ 367 NONAME
	_ZTI17SmfGalleryPrivate @ 368 NONAME
	_ZTI22SmfPostProviderPrivate @ 369 NONAME
	_ZTI24SmfContactFetcherPrivate @ 370 NONAME
	_ZTV10SmfGallery @ 371 NONAME
	_ZTV15SmfPostProvider @ 372 NONAME
	_ZTV16SmfClientPrivate @ 373 NONAME
	_ZTV17CSmfClientSymbian @ 374 NONAME
	_ZTV17SmfContactFetcher @ 375 NONAME
	_ZTV17SmfGalleryPrivate @ 376 NONAME
	_ZTV22SmfPostProviderPrivate @ 377 NONAME
	_ZTV24SmfContactFetcherPrivate @ 378 NONAME
	_ZlsR11QDataStreamRK10SmfArtists @ 379 NONAME
	_ZlsR11QDataStreamRK10SmfComment @ 380 NONAME
	_ZlsR11QDataStreamRK10SmfContact @ 381 NONAME
	_ZlsR11QDataStreamRK10SmfPicture @ 382 NONAME
	_ZlsR11QDataStreamRK11SmfLocation @ 383 NONAME
	_ZlsR11QDataStreamRK11SmfPlaylist @ 384 NONAME
	_ZlsR11QDataStreamRK11SmfProvider @ 385 NONAME
	_ZlsR11QDataStreamRK11SmfSubtitle @ 386 NONAME
	_ZlsR11QDataStreamRK12SmfTrackInfo @ 387 NONAME
	_ZlsR11QDataStreamRK14SmfMusicRating @ 388 NONAME
	_ZlsR11QDataStreamRK15SmfMusicProfile @ 389 NONAME
	_ZlsR11QDataStreamRK19SmfMusicFingerPrint @ 390 NONAME
	_ZlsR11QDataStreamRK7SmfPost @ 391 NONAME
	_ZlsR11QDataStreamRK8SmfAlbum @ 392 NONAME
	_ZlsR11QDataStreamRK8SmfEvent @ 393 NONAME
	_ZlsR11QDataStreamRK8SmfGroup @ 394 NONAME
	_ZlsR11QDataStreamRK9SmfLyrics @ 395 NONAME
	_ZlsR11QDataStreamRKN10QtMobility12QContactNameE @ 396 NONAME
	_ZrsR11QDataStreamR10SmfArtists @ 397 NONAME
	_ZrsR11QDataStreamR10SmfComment @ 398 NONAME
	_ZrsR11QDataStreamR10SmfContact @ 399 NONAME
	_ZrsR11QDataStreamR10SmfPicture @ 400 NONAME
	_ZrsR11QDataStreamR11SmfLocation @ 401 NONAME
	_ZrsR11QDataStreamR11SmfPlaylist @ 402 NONAME
	_ZrsR11QDataStreamR11SmfProvider @ 403 NONAME
	_ZrsR11QDataStreamR11SmfSubtitle @ 404 NONAME
	_ZrsR11QDataStreamR12SmfTrackInfo @ 405 NONAME
	_ZrsR11QDataStreamR14SmfMusicRating @ 406 NONAME
	_ZrsR11QDataStreamR15SmfMusicProfile @ 407 NONAME
	_ZrsR11QDataStreamR19SmfMusicFingerPrint @ 408 NONAME
	_ZrsR11QDataStreamR7SmfPost @ 409 NONAME
	_ZrsR11QDataStreamR8SmfAlbum @ 410 NONAME
	_ZrsR11QDataStreamR8SmfEvent @ 411 NONAME
	_ZrsR11QDataStreamR8SmfGroup @ 412 NONAME
	_ZrsR11QDataStreamR9SmfLyrics @ 413 NONAME
	_ZrsR11QDataStreamRN10QtMobility12QContactNameE @ 414 NONAME
	_ZN13SmfPluginUtil11getAuthKeysER4QMapI7QStringS1_ES1_S1_ @ 415 NONAME
	_ZN13SmfPluginUtil11getInstanceEv @ 416 NONAME
	_ZN13SmfPluginUtil12m_myInstanceE @ 417 NONAME DATA 4
	_ZN13SmfPluginUtil13getJsonHandleEv @ 418 NONAME
	_ZN13SmfPluginUtil21createParameterStringERK7QStringN21QNetworkAccessManager9OperationERK10QByteArrayS7_18SmfSignatureMethodRK9QMultiMapIS5_S5_E14SmfParsingMode @ 419 NONAME
	_ZN13SmfPluginUtil8getNonceER7QString @ 420 NONAME
	_ZN13SmfPluginUtilC1Ev @ 421 NONAME
	_ZN13SmfPluginUtilC2Ev @ 422 NONAME
	_ZN13SmfPluginUtilD1Ev @ 423 NONAME
	_ZN13SmfPluginUtilD2Ev @ 424 NONAME

